******************************************************************************
                  TI ARM Linker Unix v16.9.6                   
******************************************************************************
>> Linked Mon Sep 16 16:12:39 2019

OUTPUT FILE NAME:   <xwr16xx_mmw_demo_mss.xer4f>
ENTRY POINT SYMBOL: "_c_int00"  address: 000154dc


MEMORY CONFIGURATION

         name            origin    length      used     unused   attr    fill
----------------------  --------  ---------  --------  --------  ----  --------
  VECTORS               00000000   00000100  0000003c  000000c4     X
  PROG_RAM              00000100   0003ff00  0001c03e  00023ec2  R  X
  DATA_RAM              08000000   00030000  0000e124  00021edc  RW  
  L3_RAM                51000000   000c0000  00000000  000c0000  RW  
  HS_RAM                52080000   00008000  00000000  00008000  RW  


SEGMENT ALLOCATION MAP

run origin  load origin   length   init length attrs members
----------  ----------- ---------- ----------- ----- -------
00000000    00000000    0000003c   0000003c    r--
  00000000    00000000    0000003c   0000003c    r-- .vecs
00000100    00000100    0001c048   0001c048    r-x
  00000100    00000100    0001abd2   0001abd2    r-x .text
  0001acd8    0001acd8    00000fcc   00000fcc    r-- .const
  0001bca8    0001bca8    000004a0   000004a0    r-- .cinit
08000000    08000000    0000e128   00000000    rw-
  08000000    08000000    00008000   00000000    rw- systemHeap
  08008000    08008000    00003aa8   00000000    rw- .bss
  0800baa8    0800baa8    0000167c   00000000    rw- .data
  0800d128    0800d128    00000800   00000000    rw- .myFiqStack
  0800d928    0800d928    00000800   00000000    rw- .stack


SECTION ALLOCATION MAP

 output                                  attributes/
section   page    origin      length       input sections
--------  ----  ----------  ----------   ----------------
.vecs      0    00000000    0000003c     
                  00000000    0000003c     mmw_mss_per4ft.oer4ft (.vecs)

.myFiqStack 
*          0    0800d128    00000800     UNINITIALIZED
                  0800d128    00000800     mmw_mss_per4ft.oer4ft (.myFiqStack)

xdc.meta   0    00000000    00000104     COPY SECTION
                  00000000    00000104     mmw_mss_per4ft.oer4ft (xdc.meta)

xdc.noload 
*          0    00000000    00000000     COPY SECTION

.text      0    00000100    0001abd2     
                  00000100    0000107a     rtsv7R4_T_le_v3D16_eabi.lib : _printfi.obj (.text)
                  0000117a    00000002     libadcbuf_xwr16xx.aer4f : adcbuf_mmwave.oer4f (.text:ADCBUF_MMWave_init)
                  0000117c    00000884     mss_main.oer4f (.text:MmwDemo_dataPathConfig)
                  00001a00    00000626     mmw_cli.oer4f (.text:MmwDemo_CLIInit)
                  00002026    00000002     libmmwave_xwr16xx.aer4f : mmwave_link.oer4f (.text:MMWave_maskHostIRQ)
                  00002028    000005a8     mss_main.oer4f (.text:MmwDemo_initTask)
                  000025d0    000004e1     sysbios.aer4ft : BIOS.obj (.text:xdc_runtime_System_doPrint__I)
                  00002ab1    00000001     --HOLE-- [fill = 0]
                  00002ab2    00000002     libuart_xwr16xx.aer4f : uartsci.oer4f (.text:UartSci_init)
                  00002ab4    000004a8     libadcbuf_xwr16xx.aer4f : adcbuf_mmwave.oer4f (.text:ADCBUF_MMWave_control)
                  00002f5c    0000049c     mmwdemo_rfparser.oer4f (.text:MmwDemo_RFParser_parseCtrlConfig)
                  000033f8    00000438     mss_main.oer4f (.text:MmwDemo_handleObjectDetResult)
                  00003830    00000408     libcli_xwr16xx.aer4f : cli_mmwave.oer4f (.text:CLI_MMWaveVersion)
                  00003c38    00000400     mmw_cli.oer4f (.text:MmwDemo_CLISensorStart)
                  00004038    00000398     mss_main.oer4f (.text:MmwDemo_transmitProcessedOutput)
                  000043d0    00000300     libsoc_xwr16xx.aer4f : soc_xwr16xx_mss.oer4f (.text:SOC_deviceInit)
                  000046d0    000002f8     libcbuff_xwr16xx.aer4f : cbuff.oer4f (.text:CBUFF_createSession)
                  000049c8    00000008     libosal_xwr16xx.aer4f : HwiP_tirtos.oer4f (.text:HwiP_disable)
                  000049d0    000002f4     sysbios.aer4ft : BIOS.obj (.text:ti_sysbios_knl_Semaphore_pend__E)
                  00004cc4    000002e0     mss_main.oer4f (.text:MmwDemo_DPC_ObjectDetection_reportFxn)
                  00004fa4    000002d4     mss_main.oer4f (.text:MmwDemo_processPendingDynamicCfgCommands)
                  00005278    00000008     libmmwave_xwr16xx.aer4f : mmwave.oer4f (.text:MMWave_decodeErrorLevel)
                  00005280    000002cc     sysbios.aer4ft : BIOS.obj (.text:ti_sysbios_knl_Task_Instance_finalize__E)
                  0000554c    000002b8     rtsv7R4_T_le_v3D16_eabi.lib : ull_div32.obj (.text)
                  00005804    0000000c     libcli_xwr16xx.aer4f : cli_mmwave.oer4f (.text:CLI_getMMWaveExtensionConfig)
                  00005810    000002a4     sysbios.aer4ft : BIOS.obj (.text:ti_sysbios_heaps_HeapMem_freeUnprotected__E)
                  00005ab4    00000288     libhsiheader_xwr16xx.aer4f : hsiheader.oer4f (.text:HSIHeader_createHeader)
                  00005d3c    00000284     libmmwave_xwr16xx.aer4f : mmwave_dualcore.oer4f (.text:MMWave_deviceExecuteFxn)
                  00005fc0    00000280     sysbios.aer4ft : BIOS.obj (.text:ti_sysbios_family_arm_exc_Exception_excDumpContext__I)
                  00006240    0000027c     mss_main.oer4f (.text:MmwDemo_sensorStopEpilog)
                  000064bc    00000264     libcbuff_xwr16xx.aer4f : cbuff.oer4f (.text:CBUFF_init)
                  00006720    00000260     libmailbox_xwr16xx.aer4f : mailbox.oer4f (.text:Mailbox_open)
                  00006980    00000258     mss_main.oer4f (.text:MmwDemo_eventCallbackFxn)
                  00006bd8    00000254     libcli_xwr16xx.aer4f : cli_mmwave.oer4f (.text:CLI_MMWaveProfileCfg)
                  00006e2c    00000240     mss_main.oer4f (.text:MmwDemo_checkEdmaErrors)
                  0000706c    0000023c     mmw_lvds_stream.oer4f (.text:MmwDemo_LVDSStreamHwConfig)
                  000072a8    0000022c     libcbuff_xwr16xx.aer4f : cbuff_lvds.oer4f (.text:CBUFF_openLVDS)
                  000074d4    0000022c     mss_main.oer4f (.text:MmwDemo_startSensor)
                  00007700    00000228     sysbios.aer4ft : BIOS.obj (.text:ti_sysbios_heaps_HeapMem_allocUnprotected__E)
                  00007928    00000224     mss_main.oer4f (.text:MmwDemo_stopSensor)
                  00007b4c    00000004     libosal_xwr16xx.aer4f : HwiP_tirtos.oer4f (.text:HwiP_disableInterrupt)
                  00007b50    00000224     sysbios.aer4ft : BIOS.obj (.text:ti_sysbios_timers_rti_Timer_Module_startup__E)
                  00007d74    00000214     libuart_xwr16xx.aer4f : uartsci.oer4f (.text:UartSci_open)
                  00007f88    0000020a     libcbuff_xwr16xx.aer4f : cbuff_transfer.oer4f (.text:CBUFF_addLinkedList)
                  00008192    00000002     rtsv7R4_T_le_v3D16_eabi.lib : i_div0.obj (.text)
                  00008194    00000204     libcli_xwr16xx.aer4f : cli_mmwave.oer4f (.text:CLI_MMWaveChirpCfg)
                  00008398    00000008     libmmwave_xwr16xx.aer4f : mmwave_link.oer4f (.text:MMWave_mboxCallbackFxn)
                  000083a0    00000204     sysbios.aer4ft : BIOS.obj (.text:ti_sysbios_knl_Task_sleep__E)
                  000085a4    00000200     libcrc_xwr16xx.aer4f : crc.oer4f (.text:CRC_open)
                  000087a4    0000000c     libedma_xwr16xx.aer4f : edma_low_level.oer4f (.text:EDMA3ChannelToParamMap)
                  000087b0    00000200     sysbios.aer4ft : BIOS.obj (.text:ti_sysbios_knl_Task_Instance_init__E)
                  000089b0    000001f0     libdma_xwr16xx.aer4f : dma.oer4f (.text:DMA_setChannelParams)
                  00008ba0    000001e8     libedma_xwr16xx.aer4f : edma.oer4f (.text:EDMA_configChannel)
                  00008d88    000001e4     rtsv7R4_T_le_v3D16_eabi.lib : strtod.obj (.text)
                  00008f6c    000001d4     libcbuff_xwr16xx.aer4f : cbuff_edma.oer4f (.text:CBUFF_configEDMA)
                  00009140    000001cc     sysbios.aer4ft : BIOS.obj (.text:ti_sysbios_family_arm_v7r_vim_Hwi_dispatchIRQC__I)
                  0000930c    000001c8     libcbuff_xwr16xx.aer4f : cbuff_lvds.oer4f (.text:CBUFF_initLVDS)
                  000094d4    000001c8     libmmwavelink_xwr16xx.aer4f : rl_driver.oer4f (.text:rlDriverRxHdrRead)
                  0000969c    000001c8     rtsv7R4_T_le_v3D16_eabi.lib : fopen.obj (.text)
                  00009864    000001bc     libedma_xwr16xx.aer4f : edma.oer4f (.text:EDMA_open)
                  00009a20    000001b0     libmmwavelink_xwr16xx.aer4f : rl_driver.oer4f (.text:rlDriverMsgRead)
                  00009bd0    000001a8     libcli_xwr16xx.aer4f : cli_mmwave.oer4f (.text:CLI_MMWaveSubFrameCfg)
                  00009d78    000001a8     mss_main.oer4f (.text:MmwDemo_openSensor)
                  00009f20    000001a4     libcbuff_xwr16xx.aer4f : cbuff.oer4f (.text:CBUFF_activateSession)
                  0000a0c4    000001a4     libmmwave_xwr16xx.aer4f : mmwave_dualcore.oer4f (.text:MMWave_serializeCfg)
                  0000a268    000001a4     mss_main.oer4f (.text:MmwDemo_bpmConfig)
                  0000a40c    000001a4     mss_main.oer4f (.text:MmwDemo_transferLVDSUserData)
                  0000a5b0    0000019c     sysbios.aer4ft : BIOS.obj (.text:xdc_runtime_Error_policyDefault__E)
                  0000a74c    00000190     libmmwavelink_xwr16xx.aer4f : rl_driver.oer4f (.text:rlDriverCmdInvoke)
                  0000a8dc    00000004     libosal_xwr16xx.aer4f : HwiP_tirtos.oer4f (.text:HwiP_enableInterrupt)
                  0000a8e0    00000184     sysbios.aer4ft : BIOS.obj (.text:xdc_runtime_LoggerBuf_write8__E)
                  0000aa64    00000180     libdpm_xwr16xx.aer4f : dpm_core.oer4f (.text:DPM_init)
                  0000abe4    00000180                          : dpm_msg.oer4f (.text:DPM_msgRecv)
                  0000ad64    00000180     mss_main.oer4f (.text:main)
                  0000aee4    00000174     mmw_lvds_stream.oer4f (.text:MmwDemo_LVDSStreamInit)
                  0000b058    00000170     libgpio_xwr16xx.aer4f : gpio.oer4f (.text:GPIO_setConfig)
                  0000b1c8    00000008     libosal_xwr16xx.aer4f : SemaphoreP_tirtos.oer4f (.text:SemaphoreP_Params_init)
                  0000b1d0    0000016c     sysbios.aer4ft : BIOS.obj (.text:ti_sysbios_knl_Semaphore_post__E)
                  0000b33c    00000168     mmw_lvds_stream.oer4f (.text:MmwDemo_LVDSStreamSwConfig)
                  0000b4a4    0000000c     libedma_xwr16xx.aer4f : edma_low_level.oer4f (.text:EDMAsetRegion)
                  0000b4b0    00000168     sysbios.aer4ft : BIOS.obj (.text:ti_sysbios_family_arm_exc_Exception_excHandler__I)
                  0000b618    00000008     libmmwavelink_xwr16xx.aer4f : rl_driver.oer4f (.text:rlDriverConstructOutMsg)
                  0000b620    00000160     sysbios.aer4ft : BIOS.obj (.text:ti_sysbios_family_arm_v7r_vim_Hwi_reconfig__E)
                  0000b780    00000158                    : BIOS.obj (.text:ti_sysbios_knl_Task_postInit__I)
                  0000b8d8    00000150     libmmwave_xwr16xx.aer4f : mmwave_link.oer4f (.text:MMWave_openLink)
                  0000ba28    0000014c     libcli_xwr16xx.aer4f : cli_mmwave.oer4f (.text:CLI_MMWaveFrameCfg)
                  0000bb74    0000014c                          : cli.oer4f (.text:CLI_task)
                  0000bcc0    0000014c     libmmwave_xwr16xx.aer4f : mmwave_link.oer4f (.text:MMWave_initMMWaveLink)
                  0000be0c    0000014a     libuart_xwr16xx.aer4f : uartsci.oer4f (.text:UartSci_ISR)
                  0000bf56    00000002     mmw_mss_per4ft.oer4ft (.text:ti_sysbios_BIOS_nullFunc__I)
                  0000bf58    00000148     libhsiheader_xwr16xx.aer4f : hsiheader.oer4f (.text:HSIHeader_init)
                  0000c0a0    00000148     libmmwavelink_xwr16xx.aer4f : rl_driver.oer4f (.text:rlDriverCmdSendRetry)
                  0000c1e8    00000008                                 : rl_driver.oer4f (.text:rlDriverGetHandle)
                  0000c1f0    00000140     sysbios.aer4ft : BIOS.obj (.text:ti_sysbios_heaps_HeapMem_Instance_init__E)
                  0000c330    00000140                    : BIOS.obj (.text:xdc_runtime_Core_createObject__I)
                  0000c470    0000013c     mmw_lvds_stream.oer4f (.text:MmwDemo_LVDSStreamDeleteHwSession)
                  0000c5ac    0000013c     mss_main.oer4f (.text:MmwDemo_edmaOpen)
                  0000c6e8    00000008     sysbios.aer4ft : BIOS.obj (.text:ti_sysbios_family_arm_v7a_Pmu_getEnabled__E)
                  0000c6f0    0000013c                    : BIOS.obj (.text:ti_sysbios_knl_Clock_workFunc__E)
                  0000c82c    00000134     libadcbuf_xwr16xx.aer4f : adcbuf_mmwave.oer4f (.text:ADCBUF_MMWave_open)
                  0000c960    00000134     sysbios.aer4ft : BIOS.obj (.text:xdc_runtime_Startup_startMods__I)
                  0000ca94    00000130     mmw_lvds_stream.oer4f (.text:MmwDemo_LVDSStreamDeleteSwSession)
                  0000cbc4    0000000c     libmmwave_xwr16xx.aer4f : mmwave_dualcore.oer4f (.text:MMWave_deviceMailboxCallbackFxn)
                  0000cbd0    00000128     sysbios.aer4ft : BIOS.obj (.text:ti_sysbios_utils_Load_updateThreadContexts__E)
                  0000ccf8    00000124     libcli_xwr16xx.aer4f : cli_mmwave.oer4f (.text:CLI_MMWaveAdvFrameCfg)
                  0000ce1c    00000124                          : cli_mmwave.oer4f (.text:CLI_MMWaveContModeCfg)
                  0000cf40    00000124     libedma_xwr16xx.aer4f : edma.oer4f (.text:EDMA_init)
                  0000d064    0000000c     libmmwave_xwr16xx.aer4f : mmwave_osal.oer4f (.text:MMWave_osalMutexUnlock)
                  0000d070    00000120     sysbios.aer4ft : BIOS.obj (.text:xdc_runtime_LoggerBuf_write4__E)
                  0000d190    0000011c     mmw_cli.oer4f (.text:MmwDemo_CLILvdsStreamCfg)
                  0000d2ac    00000004     libmmwave_xwr16xx.aer4f : mmwave_link.oer4f (.text:MMWave_disableDevice)
                  0000d2b0    00000118     sysbios.aer4ft : BIOS.obj (.text:ti_sysbios_family_arm_v7r_vim_Hwi_Instance_init__E)
                  0000d3c8    00000116     mmw_cli.oer4f (.text:MmwDemo_CLICalibDcRangeSig)
                  0000d4de    00000002     mmw_mss_per4ft.oer4ft (.text:xdc_runtime_Startup_reset__I)
                  0000d4e0    00000114     libedma_xwr16xx.aer4f : edma.oer4f (.text:EDMA_configErrorMonitoring)
                  0000d5f4    00000110                           : edma.oer4f (.text:EDMA_transferComplete_isr)
                  0000d704    0000010c     libdpm_xwr16xx.aer4f : dpm_msg.oer4f (.text:DPM_msgResultHandler)
                  0000d810    0000010c     libmmwave_xwr16xx.aer4f : mmwave_link.oer4f (.text:MMWave_asyncEventHandler)
                  0000d91c    0000010c                             : mmwave_dualcore.oer4f (.text:MMWave_deviceInitFxn)
                  0000da28    0000010c     mmw_cli.oer4f (.text:MmwDemo_CLICompRangeBiasAndRxChanPhaseCfg)
                  0000db34    0000000c     libmmwave_xwr16xx.aer4f : mmwave_osal.oer4f (.text:MMWave_osalSemSignal)
                  0000db40    0000010c     sysbios.aer4ft : BIOS.obj (.text:ti_sysbios_knl_Task_schedule__I)
                  0000dc4c    00000004     libmmwave_xwr16xx.aer4f : mmwave_link.oer4f (.text:MMWave_enableDevice)
                  0000dc50    0000010c     sysbios.aer4ft : BIOS.obj (.text:xdc_runtime_Core_constructObject__I)
                  0000dd5c    00000108     libdma_xwr16xx.aer4f : dma.oer4f (.text:DMA_disableInterrupt)
                  0000de64    00000108     libmailbox_xwr16xx.aer4f : mailbox.oer4f (.text:Mailbox_write)
                  0000df6c    00000108     mmw_cli.oer4f (.text:MmwDemo_CLICfarCfg)
                  0000e074    00000104     libcbuff_xwr16xx.aer4f : cbuff.oer4f (.text:CBUFF_deinit)
                  0000e178    00000104     libmmwave_xwr16xx.aer4f : mmwave_link.oer4f (.text:MMWave_startLink)
                  0000e27c    00000104     mmw_cli.oer4f (.text:MmwDemo_CLIChirpQualityRxSatMonCfg)
                  0000e380    00000104     sysbios.aer4ft : BIOS.obj (.text:ti_sysbios_timers_rti_Timer_getFreq__E)
                  0000e484    00000100     libcli_xwr16xx.aer4f : cli_mmwave.oer4f (.text:CLI_MMWaveBPMCfgAdvanced)
                  0000e584    00000100     libdma_xwr16xx.aer4f : dma.oer4f (.text:DMA_clearChannelInterruptFlag)
                  0000e684    00000100     libmmwavelink_xwr16xx.aer4f : rl_driver.oer4f (.text:rlDriverInit)
                  0000e784    000000fd     mss_main.oer4f (.text:MmwDemo_setSubFramePendingState)
                  0000e881    00000003     --HOLE-- [fill = 0]
                  0000e884    000000fc     libcbuff_xwr16xx.aer4f : cbuff.oer4f (.text:CBUFF_deleteSession)
                  0000e980    000000fc     libcrc_xwr16xx.aer4f : crc.oer4f (.text:CRC_computeSignature)
                  0000ea7c    00000004     libmmwave_xwr16xx.aer4f : mmwave_listlib.oer4f (.text:MMWave_listGetHead)
                  0000ea80    000000fc     sysbios.aer4ft : BIOS.obj (.text:ti_sysbios_knl_Task_exit__E)
                  0000eb7c    000000f8     mmw_lvds_stream.oer4f (.text:MmwDemo_configLVDSHwData)
                  0000ec74    000000f8     libmmwavelink_xwr16xx.aer4f : rl_driver.oer4f (.text:rlDriverRdVerifyMsg)
                  0000ed6c    000000f8     mmw_mss_per4ft.oer4ft (.text:xdc_runtime_System_printfExtend__I)
                  0000ee64    000000f6     libedma_xwr16xx.aer4f : edma.oer4f (.text:EDMA_check4kSiErrata)
                  0000ef5a    00000006     libosal_xwr16xx.aer4f : CycleprofilerP_tirtos.oer4f (.text:CycleprofilerP_getTimeStamp)
                  0000ef60    000000f0     sysbios.aer4ft : BIOS.obj (.text:ti_sysbios_family_arm_v7r_vim_Hwi_Module_startup__E)
                  0000f050    000000f0                    : BIOS.obj (.text:ti_sysbios_knl_Task_startCore__E)
                  0000f140    000000f0                    : BIOS.obj (.text:ti_sysbios_utils_Load_taskCreateHook__E)
                  0000f230    000000ec     rtsv7R4_T_le_v3D16_eabi.lib : s_scalbn.obj (.text)
                  0000f31c    00000004     libmmwave_xwr16xx.aer4f : mmwave_listlib.oer4f (.text:MMWave_listGetNext)
                  0000f320    000000ec     sysbios.aer4ft : BIOS.obj (.text:ti_sysbios_heaps_HeapBuf_Module_startup__E)
                  0000f40c    000000e8     mmw_cli.oer4f (.text:MmwDemo_CLIChirpQualitySigImgMonCfg)
                  0000f4f4    000000e4     mmw_cli.oer4f (.text:MmwDemo_CLIBpmCfg)
                  0000f5d8    000000e2     libedma_xwr16xx.aer4f : edma.oer4f (.text:EDMA_paramConfig_assist)
                  0000f6ba    00000002     --HOLE-- [fill = 0]
                  0000f6bc    000000e0     libcli_xwr16xx.aer4f : cli.oer4f (.text:CLI_open)
                  0000f79c    000000e0     libdma_xwr16xx.aer4f : dma.oer4f (.text:DMA_enableInterrupt)
                  0000f87c    000000dc     libedma_xwr16xx.aer4f : edma.oer4f (.text:EDMA_configParamSet)
                  0000f958    000000dc     libmmwave_xwr16xx.aer4f : mmwave.oer4f (.text:MMWave_init)
                  0000fa34    000000dc     rtsv7R4_T_le_v3D16_eabi.lib : setvbuf.obj (.text)
                  0000fb10    000000d4     libmailbox_xwr16xx.aer4f : mailbox.oer4f (.text:Mailbox_read)
                  0000fbe4    000000d4     libmmwavelink_xwr16xx.aer4f : rl_sensor.oer4f (.text:rlSetMultiBpmChirpConfig)
                  0000fcb8    00000008     mmw_mss_per4ft.oer4ft (.text:xdc_runtime_Text_visitRope__I)
                  0000fcc0    000000d4     sysbios.aer4ft : BIOS.obj (.text:ti_sysbios_utils_Load_logLoads__I)
                  0000fd94    000000d0     libsoc_xwr16xx.aer4f : soc_xwr16xx_mss.oer4f (.text:SOC_controlSecureFirewall)
                  0000fe64    000000d0     sysbios.aer4ft : exc_Exception_asm.obj (.text:ti_sysbios_family_arm_exc_Exception_excHandlerAsm__I)
                  0000ff34    0000000c     libuart_xwr16xx.aer4f : UART.oer4f (.text:UART_Params_init)
                  0000ff40    000000d0     sysbios.aer4ft : BIOS.obj (.text:ti_sysbios_utils_Load_idleFxn__E)
                  00010010    000000d0                    : BIOS.obj (.text:xdc_runtime_LoggerBuf_Instance_init__E)
                  000100e0    000000cc     libmmwavelink_xwr16xx.aer4f : rl_sensor.oer4f (.text:rlRfCalibDataRestore)
                  000101ac    000000cc                                 : rl_sensor.oer4f (.text:rlSetChirpConfig)
                  00010278    000000cc     rtsv7R4_T_le_v3D16_eabi.lib : fflush.obj (.text)
                  00010344    0000000c     libuart_xwr16xx.aer4f : uartsci_dma.oer4f (.text:UartSci_isDMAEnabled)
                  00010350    000000cc     sysbios.aer4ft : BIOS.obj (.text:ti_sysbios_knl_Task_checkStacks__E)
                  0001041c    000000c8     libmmwave_xwr16xx.aer4f : mmwave_fullcfg.oer4f (.text:MMWave_addChirp)
                  000104e4    000000c8                             : mmwave_link.oer4f (.text:MMWave_configBPM)
                  000105ac    000000c8                             : mmwave_fullcfg.oer4f (.text:MMWave_flushCfg)
                  00010674    000000c8                             : mmwave_fullcfg.oer4f (.text:MMWave_getChirpHandle)
                  0001073c    000000c8     mss_main.oer4f (.text:MmwDemo_configSensor)
                  00010804    000000c8     libmmwavelink_xwr16xx.aer4f : rl_sensor.oer4f (.text:rlSetFrameConfig)
                  000108cc    000000c4     libcbuff_xwr16xx.aer4f : cbuff_transfer.oer4f (.text:CBUFF_setupNonInterleaved_CP_ADC_CQ)
                  00010990    000000c4     libdpm_xwr16xx.aer4f : dpm_core.oer4f (.text:DPM_deinit)
                  00010a54    000000c4                          : dpm_core.oer4f (.text:DPM_ioctl)
                  00010b18    000000c4     libmmwavelink_xwr16xx.aer4f : rl_driver.oer4f (.text:rlDriverMsgCmdReply)
                  00010bdc    00000004     libmmwave_xwr16xx.aer4f : mmwave_link.oer4f (.text:MMWave_mboxClose)
                  00010be0    000000c4     sysbios.aer4ft : BIOS.obj (.text:ti_sysbios_family_arm_v7a_Pmu_configureCounter__E)
                  00010ca4    000000c0     mmw_cli.oer4f (.text:MmwDemo_CLIAnalogMonitorCfg)
                  00010d64    000000c0     libmmwavelink_xwr16xx.aer4f : rl_driver.oer4f (.text:rlDriverMsgWrite)
                  00010e24    0000000c     sysbios.aer4ft : arm_IntrinsicsSupport_asm.obj (.text:_ti_sysbios_family_arm_IntrinsicsSupport_maxbitA)
                  00010e30    000000c0                    : BIOS.obj (.text:ti_sysbios_timers_rti_Timer_startup__E)
                  00010ef0    000000bc     libcli_xwr16xx.aer4f : cli.oer4f (.text:CLI_help)
                  00010fac    000000bc     libgpio_xwr16xx.aer4f : gpio.oer4f (.text:GPIO_write)
                  00011068    000000bc     libmmwave_xwr16xx.aer4f : mmwave_link.oer4f (.text:MMWave_computeCRC)
                  00011124    000000bc     mmw_lvds_stream.oer4f (.text:MmwDemo_LVDSStream_EDMAInit)
                  000111e0    000000bc     mss_main.oer4f (.text:MmwDemo_isAllCfgInPendingState)
                  0001129c    000000bc     rtsv7R4_T_le_v3D16_eabi.lib : open.obj (.text)
                  00011358    000000b8     libcbuff_xwr16xx.aer4f : cbuff.oer4f (.text:CBUFF_ISR)
                  00011410    000000b8                            : cbuff_transfer.oer4f (.text:CBUFF_setupTransfer)
                  000114c8    000000b8     libdma_xwr16xx.aer4f : dma.oer4f (.text:DMA_getChannelInterruptFlag)
                  00011580    000000b6     libsoc_xwr16xx.aer4f : soc_mpu.o (.text)
                  00011636    0000000a     libadcbuf_xwr16xx.aer4f : ADCBuf.oer4f (.text:ADCBuf_control)
                  00011640    000000b4     sysbios.aer4ft : BIOS.obj (.text:ti_sysbios_gates_GateMutex_enter__E)
                  000116f4    0000000c     rtsv7R4_T_le_v3D16_eabi.lib : copy_zero_init.obj (.text:decompress:ZI)
                  00011700    000000b4     sysbios.aer4ft : BIOS.obj (.text:xdc_runtime_LoggerBuf_setFilterLevel__E)
                  000117b4    000000b2     libuart_xwr16xx.aer4f : uartsci_dma.oer4f (.text:UartSci_openDMA)
                  00011866    00000002     --HOLE-- [fill = 0]
                  00011868    000000b0     libcbuff_xwr16xx.aer4f : cbuff.oer4f (.text:CBUFF_deactivateSession)
                  00011918    000000b0     libmmwave_xwr16xx.aer4f : mmwave_fullcfg.oer4f (.text:MMWave_addProfile)
                  000119c8    000000b0     mmw_cli.oer4f (.text:MmwDemo_CLIADCBufCfg)
                  00011a78    000000b0     libmmwavelink_xwr16xx.aer4f : rl_sensor.oer4f (.text:rlSetProfileConfig)
                  00011b28    00000006     libdpm_xwr16xx.aer4f : dpm_mailbox.oer4f (.text:DPM_mboxSynch)
                  00011b2e    00000002     --HOLE-- [fill = 0]
                  00011b30    000000b0     sysbios.aer4ft : BIOS.obj (.text:ti_sysbios_utils_Load_updateLoads__E)
                  00011be0    000000b0                    : BIOS.obj (.text:xdc_runtime_Text_putMod__E)
                  00011c90    000000ae     mmwdemo_adcconfig.oer4f (.text:MmwDemo_ADCBufConfig)
                  00011d3e    000000ae     rtsv7R4_T_le_v3D16_eabi.lib : _io_perm.obj (.text)
                  00011dec    000000ac     libesm_xwr16xx.aer4f : esm.oer4f (.text:ESM_processInterrupt)
                  00011e98    000000ac     mss_main.oer4f (.text:MmwDemo_isAllCfgInNonPendingState)
                  00011f44    0000000c     libmmwavelink_xwr16xx.aer4f : rl_driver.oer4f (.text:rlDriverGetPlatformId)
                  00011f50    000000ac     sysbios.aer4ft : BIOS.obj (.text:ti_sysbios_knl_Task_Module_startup__E)
                  00011ffc    00000004     libmmwave_xwr16xx.aer4f : mmwave_link.oer4f (.text:MMWave_mboxRead)
                  00012000    000000ac     sysbios.aer4ft : BIOS.obj (.text:ti_sysbios_utils_Load_startup__E)
                  000120ac    000000a8     libadcbuf_xwr16xx.aer4f : adcbuf_mmwave.oer4f (.text:ADCBUF_MMWave_getChanBufAddr)
                  00012154    000000a8     libcli_xwr16xx.aer4f : cli_mmwave.oer4f (.text:CLI_MMWaveExtensionHelp)
                  000121fc    000000a8     libedma_xwr16xx.aer4f : edma_low_level.oer4f (.text:EDMA3Init)
                  000122a4    000000a8     libmmwave_xwr16xx.aer4f : mmwave_link.oer4f (.text:MMWave_configureProfileChirp)
                  0001234c    000000a8                             : mmwave_fullcfg.oer4f (.text:MMWave_getBpmChirpHandle)
                  000123f4    000000a8     libpinmux_xwr16xx.aer4f : pinmux.oer4f (.text:Pinmux_Set_OverrideCtrl)
                  0001249c    000000a8     libsoc_xwr16xx.aer4f : soc.oer4f (.text:SOC_deregisterSysIntListener)
                  00012544    000000a8     libmmwavelink_xwr16xx.aer4f : rl_driver.oer4f (.text:rlDriverWaitForResponse)
                  000125ec    000000a8                                 : rl_sensor.oer4f (.text:rlSetAdvFrameConfig)
                  00012694    000000a4     libdma_xwr16xx.aer4f : dma.oer4f (.text:DMA_assignChannel)
                  00012738    000000a4     libesm_xwr16xx.aer4f : esm.oer4f (.text:ESM_init)
                  000127dc    000000a4     libmmwave_xwr16xx.aer4f : mmwave_fullcfg.oer4f (.text:MMWave_addBpmChirp)
                  00012880    000000a4                             : mmwave.oer4f (.text:MMWave_start)
                  00012924    000000a4     libsoc_xwr16xx.aer4f : soc_xwr16xx_mss.oer4f (.text:SOC_unhaltDSS)
                  000129c8    00000006     libedma_xwr16xx.aer4f : edma_low_level.oer4f (.text:EDMA3ClrCCErr)
                  000129ce    00000002     --HOLE-- [fill = 0]
                  000129d0    000000a2     sysbios.aer4ft : BIOS.obj (.text:xdc_runtime_Text_putSite__E)
                  00012a72    00000002     --HOLE-- [fill = 0]
                  00012a74    000000a0     libsoc_xwr16xx.aer4f : soc.oer4f (.text:SOC_registerSysIntListener)
                  00012b14    000000a0     auto_init.aer4ft : auto_init.oer4ft (.text)
                  00012bb4    0000000c     sysbios.aer4ft : BIOS.obj (.text:ti_sysbios_family_arm_v7a_Pmu_configureCounterI__I)
                  00012bc0    000000a0                    : BIOS.obj (.text:ti_sysbios_knl_Task_blockI__E)
                  00012c60    0000009c     libmmwave_xwr16xx.aer4f : mmwave_link.oer4f (.text:MMWave_configLink)
                  00012cfc    0000009c                             : mmwave_fullcfg.oer4f (.text:MMWave_getProfileHandle)
                  00012d98    0000009c     mmw_cli.oer4f (.text:MmwDemo_CLIMeasureRangeBiasAndRxChanPhaseCfg)
                  00012e34    0000009c     libuart_xwr16xx.aer4f : uartsci.oer4f (.text:UartSci_write)
                  00012ed0    0000009c     rtsv7R4_T_le_v3D16_eabi.lib : memcpy_t2.obj (.text)
                  00012f6c    00000004     libmmwave_xwr16xx.aer4f : mmwave_link.oer4f (.text:MMWave_registerInterruptHandler)
                  00012f70    0000009c     sysbios.aer4ft : BIOS.obj (.text:ti_sysbios_family_arm_v7r_vim_Hwi_initIntController__I)
                  0001300c    00000004     libmmwave_xwr16xx.aer4f : mmwave_link.oer4f (.text:MMWave_unmaskHostIRQ)
                  00013010    0000009c     sysbios.aer4ft : BIOS.obj (.text:ti_sysbios_family_arm_v7r_vim_Hwi_mapChannel__I)
                  000130ac    00000004     libmmwave_xwr16xx.aer4f : mmwave_link.oer4f (.text:MMWave_waitIRQStatus)
                  000130b0    0000009c     sysbios.aer4ft : BIOS.obj (.text:ti_sysbios_knl_Semaphore_Instance_init__E)
                  0001314c    0000009a     libdpm_xwr16xx.aer4f : dpm_msg.oer4f (.text:DPM_msgResponseHandler)
                  000131e6    00000002     --HOLE-- [fill = 0]
                  000131e8    00000098     libmmwave_xwr16xx.aer4f : mmwave_fullcfg.oer4f (.text:MMWave_getChirpCfg)
                  00013280    00000098     mmwdemo_rfparser.oer4f (.text:MmwDemo_RFParser_parseConfig)
                  00013318    00000098     rtsv7R4_T_le_v3D16_eabi.lib : fclose.obj (.text)
                  000133b0    00000098                                 : fputc.obj (.text)
                  00013448    00000098     sysbios.aer4ft : vim_Hwi_asm_switch.obj (.text)
                  000134e0    00000098                    : BIOS.obj (.text:ti_sysbios_utils_Load_taskDeleteHook__E)
                  00013578    00000096     libedma_xwr16xx.aer4f : edma.oer4f (.text:EDMA_getErrorStatusInfo)
                  0001360e    00000096     libuart_xwr16xx.aer4f : uartsci.oer4f (.text:UartSci_readChar)
                  000136a4    00000094     libcbuff_xwr16xx.aer4f : cbuff_transfer.oer4f (.text:CBUFF_setupNonInterleaved_ADC)
                  00013738    00000094     mmw_lvds_stream.oer4f (.text:MmwDemo_LVDSStream_EDMAAllocateCBUFFHwChannel)
                  000137cc    00000094     mmw_lvds_stream.oer4f (.text:MmwDemo_LVDSStream_EDMAAllocateCBUFFSwChannel)
                  00013860    00000094     libmmwavelink_xwr16xx.aer4f : rl_driver.oer4f (.text:rlDriverDeInit)
                  000138f4    00000094                                 : rl_driver.oer4f (.text:rlDriverMsgReadCmdCtx)
                  00013988    00000094                                 : rl_driver.oer4f (.text:rlDriverProcRdMsg)
                  00013a1c    00000094     sysbios.aer4ft : vim_Hwi_asm.obj (.text:ti_sysbios_family_arm_v7r_vim_Hwi_dispatchIRQ__I)
                  00013ab0    00000090     libgpio_xwr16xx.aer4f : gpio.oer4f (.text:GPIO_init)
                  00013b40    00000090     libmailbox_xwr16xx.aer4f : mailbox.oer4f (.text:Mailbox_close)
                  00013bd0    00000090     libuart_xwr16xx.aer4f : uartsci_dma.oer4f (.text:UartSci_initiateTxDMA)
                  00013c60    00000090                           : uartsci.oer4f (.text:UartSci_read)
                  00013cf0    00000090     sysbios.aer4ft : BIOS.obj (.text:ti_sysbios_family_arm_v7a_Pmu_startCounter__E)
                  00013d80    00000090                    : BIOS.obj (.text:ti_sysbios_knl_Task_unblockI__E)
                  00013e10    00000090                    : BIOS.obj (.text:xdc_runtime_LoggerBuf_getFilterLevel__E)
                  00013ea0    0000008c     libcli_xwr16xx.aer4f : cli_mmwave.oer4f (.text:CLI_MMWaveDataOutputMode)
                  00013f2c    0000008c     libsoc_xwr16xx.aer4f : soc_xwr16xx.oer4f (.text:SOC_translateAddress)
                  00013fb8    0000008c     libuart_xwr16xx.aer4f : uartsci_dma.oer4f (.text:UartSci_initiateRxDMA)
                  00014044    0000008c     libmmwavelink_xwr16xx.aer4f : rl_device.oer4f (.text:rlDevicePowerOn)
                  000140d0    0000008c                                 : rl_driver.oer4f (.text:rlDriverMsgReadSpawnCtx)
                  0001415c    00000004     mss_main.oer4f (.text:MmwDemo_sleep)
                  00014160    0000008c     sysbios.aer4ft : BIOS.obj (.text:ti_sysbios_family_arm_v7a_Pmu_getCount__E)
                  000141ec    00000004     libsoc_xwr16xx.aer4f : soc_xwr16xx.oer4f (.text:SOC_gateClock)
                  000141f0    0000008c     sysbios.aer4ft : BIOS.obj (.text:ti_sysbios_family_arm_v7r_vim_Hwi_Instance_finalize__E)
                  0001427c    00000004     libsoc_xwr16xx.aer4f : soc_xwr16xx.oer4f (.text:SOC_ungateClock)
                  00014280    0000008c     sysbios.aer4ft : BIOS.obj (.text:xdc_runtime_Memory_alloc__E)
                  0001430c    00000088     libmmwave_xwr16xx.aer4f : mmwave_fullcfg.oer4f (.text:MMWave_getProfileCfg)
                  00014394    00000088     rtsv7R4_T_le_v3D16_eabi.lib : vsnprintf.obj (.text)
                  0001441c    00000086     libcbuff_xwr16xx.aer4f : cbuff_edma.oer4f (.text:CBUFF_closeEDMA)
                  000144a2    00000002     --HOLE-- [fill = 0]
                  000144a4    00000084     libmmwave_xwr16xx.aer4f : mmwave_dualcore.oer4f (.text:MMWave_deviceCfgAsyncEvent)
                  00014528    00000084                             : mmwave_dualcore.oer4f (.text:MMWave_deviceEventFxn)
                  000145ac    00000084                             : mmwave_fullcfg.oer4f (.text:MMWave_getNumBpmChirp)
                  00014630    00000084                             : mmwave.oer4f (.text:MMWave_open)
                  000146b4    00000084     libsoc_xwr16xx.aer4f : soc.oer4f (.text:SOC_init)
                  00014738    00000081     libcbuff_xwr16xx.aer4f : cbuff_edma.oer4f (.text:CBUFF_setupEDMAShadowLink)
                  000147b9    00000003     --HOLE-- [fill = 0]
                  000147bc    00000080     libcli_xwr16xx.aer4f : cli_mmwave.oer4f (.text:CLI_MMWaveChannelCfg)
                  0001483c    00000080     libdpm_xwr16xx.aer4f : dpm_mailbox.oer4f (.text:DPM_mboxRemoteMailboxCallbackFxn)
                  000148bc    00000080     libmmwave_xwr16xx.aer4f : mmwave_fullcfg.oer4f (.text:MMWave_getBpmChirpCfg)
                  0001493c    00000080     mmw_cli.oer4f (.text:MmwDemo_CLIAoAFovCfg)
                  000149bc    00000080     libuart_xwr16xx.aer4f : uartsci.oer4f (.text:UartSci_writePolling)
                  00014a3c    00000080     libmmwavelink_xwr16xx.aer4f : rl_driver.oer4f (.text:rlDriverExecuteGetApi)
                  00014abc    00000004     mmw_mss_per4ft.oer4ft (.text:ti_sysbios_BIOS_RtsGateProxy_enter__E)
                  00014ac0    00000080     sysbios.aer4ft : BIOS.obj (.text:ti_sysbios_timers_rti_Timer_initDevice__I)
                  00014b40    0000007e     libosal_xwr16xx.aer4f : HwiP_tirtos.oer4f (.text:HwiP_create)
                  00014bbe    00000002     --HOLE-- [fill = 0]
                  00014bc0    0000007d     libcbuff_xwr16xx.aer4f : cbuff_lvds.oer4f (.text:CBUFF_initLVDSLinkListParams)
                  00014c3d    00000003     --HOLE-- [fill = 0]
                  00014c40    0000007c     libdpm_xwr16xx.aer4f : dpm_pipe.oer4f (.text:DPM_pipeSend)
                  00014cbc    0000007c     libedma_xwr16xx.aer4f : edma.oer4f (.text:EDMA_clearErrors)
                  00014d38    0000007c     libmmwave_xwr16xx.aer4f : mmwave_dualcore.oer4f (.text:MMWave_deviceOpenFxn)
                  00014db4    0000007c     libmailbox_xwr16xx.aer4f : mailbox.oer4f (.text:Mailbox_init)
                  00014e30    0000007c     mmw_lvds_stream.oer4f (.text:MmwDemo_LVDSStream_SwTriggerFrameDone)
                  00014eac    0000007c     libuart_xwr16xx.aer4f : uartsci.oer4f (.text:UartSci_readPolling)
                  00014f28    0000007c     sysbios.aer4ft : arm_TaskSupport_asm.obj (.text:_ti_sysbios_family_arm_TaskSupport_buildTaskStack)
                  00014fa4    0000000c                    : BIOS.obj (.text:ti_sysbios_family_arm_v7a_Pmu_getCountI__E)
                  00014fb0    0000007c                    : BIOS.obj (.text:xdc_runtime_Core_deleteObject__I)
                  0001502c    0000007b     mmw_cli.oer4f (.text:MmwDemo_CLIGetSubframe)
                  000150a7    00000001     --HOLE-- [fill = 0]
                  000150a8    0000007a     rtsv7R4_T_le_v3D16_eabi.lib : memset_t2.obj (.text)
                  00015122    00000002     --HOLE-- [fill = 0]
                  00015124    00000078     libadcbuf_xwr16xx.aer4f : adcbuf_mmwave.oer4f (.text:ADCBUF_MMWave_getCQBufAddr)
                  0001519c    00000078     libcbuff_xwr16xx.aer4f : cbuff_transfer.oer4f (.text:CBUFF_configUserBufferEDMA)
                  00015214    00000078                            : cbuff.oer4f (.text:CBUFF_setVC)
                  0001528c    00000078     libcli_xwr16xx.aer4f : cli_mmwave.oer4f (.text:CLI_MMWaveADCCfg)
                  00015304    00000078     libmmwave_xwr16xx.aer4f : mmwave_fullcfg.oer4f (.text:MMWave_getNumChirps)
                  0001537c    00000078     libsoc_xwr16xx.aer4f : soc.oer4f (.text:SOC_getDeviceRFFreqScaleFactor)
                  000153f4    00000074     libmmwave_xwr16xx.aer4f : mmwave.oer4f (.text:MMWave_config)
                  00015468    00000074                             : mmwave_dualcore.oer4f (.text:MMWave_deviceStartFxn)
                  000154dc    00000074     boot.aer4ft : boot.oer4ft (.text)
                  00015550    00000074     libmmwavelink_xwr16xx.aer4f : rl_driver.oer4f (.text:rlDriverAsyncEventHandler)
                  000155c4    00000074     rtsv7R4_T_le_v3D16_eabi.lib : getdevice.obj (.text)
                  00015638    00000074                                 : s_frexp.obj (.text)
                  000156ac    00000072     libmmwavelink_xwr16xx.aer4f : rl_driver.oer4f (.text:rlDriverClientCbCheck)
                  0001571e    00000002     --HOLE-- [fill = 0]
                  00015720    00000070     libhsiheader_xwr16xx.aer4f : hsiheader.oer4f (.text:HSIHeader_deleteHeader)
                  00015790    00000070     libmmwave_xwr16xx.aer4f : mmwave_dualcore.oer4f (.text:MMWave_deviceCfgFxn)
                  00015800    00000070     mmw_cli.oer4f (.text:MmwDemo_CLIGuiMonSel)
                  00015870    00000070     sysbios.aer4ft : BIOS.obj (.text:xdc_runtime_Error_print__E)
                  000158e0    0000006c     libdma_xwr16xx.aer4f : dma.oer4f (.text:DMA_disableChannel)
                  0001594c    0000006c                          : dma.oer4f (.text:DMA_enableChannel)
                  000159b8    0000006c     libmmwave_xwr16xx.aer4f : mmwave_link.oer4f (.text:MMWave_spawn)
                  00015a24    0000006c                             : mmwave_link.oer4f (.text:MMWave_stopLink)
                  00015a90    0000006c     mmw_lvds_stream.oer4f (.text:MmwDemo_LVDSStream_EDMAFreeCBUFFHwChannel)
                  00015afc    0000006c     mmw_lvds_stream.oer4f (.text:MmwDemo_LVDSStream_EDMAFreeCBUFFSwChannel)
                  00015b68    0000006c     mmw_lvds_stream.oer4f (.text:MmwDemo_LVDSStream_HwTriggerFrameDone)
                  00015bd4    0000006c     libpinmux_xwr16xx.aer4f : pinmux.oer4f (.text:Pinmux_Set_FuncSel)
                  00015c40    0000006c     rtsv7R4_T_le_v3D16_eabi.lib : copy_decompress_lzss.obj (.text:decompress:lzss)
                  00015cac    0000006c                                 : trgmsg.obj (.text)
                  00015d18    0000006a     libedma_xwr16xx.aer4f : edma.oer4f (.text:EDMA_transferController_error_isr)
                  00015d82    0000006a     libuart_xwr16xx.aer4f : uartsci.oer4f (.text:UartSci_control)
                  00015dec    00000068     libdpm_xwr16xx.aer4f : dpm_msg.oer4f (.text:DPM_msgDPCCfgHandler)
                  00015e54    00000068     libmmwave_xwr16xx.aer4f : mmwave_dualcore.oer4f (.text:MMWave_deviceStopFxn)
                  00015ebc    00000068     libmailbox_xwr16xx.aer4f : mailbox.oer4f (.text:Mailbox_readFlush)
                  00015f24    00000068     mss_main.oer4f (.text:MmwDemo_convertCfarToLinear)
                  00015f8c    00000068     libmmwavelink_xwr16xx.aer4f : rl_driver.oer4f (.text:rlDriverExecuteSetApi)
                  00015ff4    00000068                                 : rl_driver.oer4f (.text:rlDriverHostIrqHandler)
                  0001605c    00000068     rtsv7R4_T_le_v3D16_eabi.lib : hostlseek.obj (.text)
                  000160c4    00000068                                 : hostrename.obj (.text)
                  0001612c    00000066     libmmwavelink_xwr16xx.aer4f : rl_device.oer4f (.text:rlDevicePowerOff)
                  00016192    00000002     --HOLE-- [fill = 0]
                  00016194    00000064     libcli_xwr16xx.aer4f : cli_mmwave.oer4f (.text:CLI_MMWaveLowPowerCfg)
                  000161f8    00000064     libedma_xwr16xx.aer4f : edma.oer4f (.text:EDMA_getTransferControllerErrorStatusInfo)
                  0001625c    00000064     libosal_xwr16xx.aer4f : SemaphoreP_tirtos.oer4f (.text:SemaphoreP_create)
                  000162c0    00000064     rtsv7R4_T_le_v3D16_eabi.lib : fseek.obj (.text)
                  00016324    00000064                                 : sprintf.obj (.text)
                  00016388    00000064     sysbios.aer4ft : exc_Exception_asm.obj (.text:ti_sysbios_family_arm_exc_Exception_initCore0__I)
                  000163ec    00000004     mmw_mss_per4ft.oer4ft (.text:ti_sysbios_BIOS_RtsGateProxy_leave__E)
                  000163f0    00000064     sysbios.aer4ft : BIOS.obj (.text:ti_sysbios_family_arm_v7r_vim_Hwi_phantomIntHandler__I)
                  00016454    0000000c     mmw_mss_per4ft.oer4ft (.text:ti_sysbios_knl_Queue_Object__get__S)
                  00016460    00000064     sysbios.aer4ft : BIOS.obj (.text:ti_sysbios_knl_Clock_logTick__E)
                  000164c4    0000000a     libadcbuf_xwr16xx.aer4f : ADCBuf.oer4f (.text:ADCBuf_getChanBufAddr)
                  000164ce    00000002     --HOLE-- [fill = 0]
                  000164d0    00000064     sysbios.aer4ft : BIOS.obj (.text:ti_sysbios_utils_Load_logCPULoad__I)
                  00016534    0000000a     libcbuff_xwr16xx.aer4f : cbuff_lvds.oer4f (.text:CBUFF_deinitLVDS)
                  0001653e    00000002     --HOLE-- [fill = 0]
                  00016540    00000064     sysbios.aer4ft : BIOS.obj (.text:xdc_runtime_Startup_exec__E)
                  000165a4    00000062     mmw_cli.oer4f (.text:MmwDemo_CLICfarFovCfg)
                  00016606    00000002     --HOLE-- [fill = 0]
                  00016608    00000060     libcli_xwr16xx.aer4f : cli_mmwave.oer4f (.text:CLI_MMWaveExtensionHandler)
                  00016668    00000060     libosal_xwr16xx.aer4f : DebugP_tirtos.oer4f (.text:DebugP_log2)
                  000166c8    00000060                           : DebugP_tirtos.oer4f (.text:DebugP_log3)
                  00016728    00000060     mss_main.oer4f (.text:MmwDemo_mmWaveCtrlTask)
                  00016788    00000006     libedma_xwr16xx.aer4f : edma_low_level.oer4f (.text:EDMA3ErrIntrHighStatusGet)
                  0001678e    00000002     --HOLE-- [fill = 0]
                  00016790    00000060     sysbios.aer4ft : BIOS.obj (.text:ti_sysbios_heaps_HeapMem_alloc__E)
                  000167f0    00000060                    : BIOS.obj (.text:xdc_runtime_Assert_raise__I)
                  00016850    0000005f                    : BIOS.obj (.text:xdc_runtime_Text_putLab__E)
                  000168af    00000001     --HOLE-- [fill = 0]
                  000168b0    0000005e     libuart_xwr16xx.aer4f : uartsci.oer4f (.text:UartSci_writeChar)
                  0001690e    00000002     --HOLE-- [fill = 0]
                  00016910    0000005c     libedma_xwr16xx.aer4f : edma.oer4f (.text:EDMA_getTransferControllerErrorStatus)
                  0001696c    0000005c     libmmwave_xwr16xx.aer4f : mmwave_link.oer4f (.text:MMWave_mboxOpen)
                  000169c8    0000005c                             : mmwave.oer4f (.text:MMWave_stop)
                  00016a24    0000005c     mss_main.oer4f (.text:MmwDemo_EDMA_errorCallbackFxn)
                  00016a80    0000005c     mss_main.oer4f (.text:MmwDemo_EDMA_transferControllerErrorCallbackFxn)
                  00016adc    0000005c     libsoc_xwr16xx.aer4f : soc.oer4f (.text:SOC_enableLVDS)
                  00016b38    0000005c     rtsv7R4_T_le_v3D16_eabi.lib : hostopen.obj (.text)
                  00016b94    0000005c                                 : hostread.obj (.text)
                  00016bf0    0000005c     sysbios.aer4ft : BIOS.obj (.text:ti_sysbios_utils_Load_updateCurrentThreadTime__E)
                  00016c4c    0000005a     libuart_xwr16xx.aer4f : uartsci.oer4f (.text:UartSci_readCancel)
                  00016ca6    0000005a     libmmwavelink_xwr16xx.aer4f : rl_driver.oer4f (.text:rlDriverCalChkSum)
                  00016d00    00000058     libdpm_xwr16xx.aer4f : dpm_core.oer4f (.text:DPM_execute)
                  00016d58    00000058                          : dpm_mailbox.oer4f (.text:DPM_mboxInit)
                  00016db0    00000058     libosal_xwr16xx.aer4f : DebugP_tirtos.oer4f (.text:DebugP_log0)
                  00016e08    00000058                           : DebugP_tirtos.oer4f (.text:DebugP_log1)
                  00016e60    00000058     libedma_xwr16xx.aer4f : edma_low_level.oer4f (.text:EDMA3EnableChInShadowReg)
                  00016eb8    00000058     libesm_xwr16xx.aer4f : esm.oer4f (.text:ESM_highpriority_FIQ)
                  00016f10    00000058     libmmwave_xwr16xx.aer4f : mmwave.oer4f (.text:MMWave_execute)
                  00016f68    00000058                             : mmwave_link.oer4f (.text:MMWave_initCRC)
                  00016fc0    00000058     mmw_cli.oer4f (.text:MmwDemo_CLISensorStop)
                  00017018    00000058     libuart_xwr16xx.aer4f : uartsci_dma.oer4f (.text:UartSci_closeDMA)
                  00017070    00000058     rtsv7R4_T_le_v3D16_eabi.lib : close.obj (.text)
                  000170c8    00000058                                 : hostwrite.obj (.text)
                  00017120    00000056     libmmwavelink_xwr16xx.aer4f : rl_driver.oer4f (.text:rlDriverOsiCbCheck)
                  00017176    00000002     --HOLE-- [fill = 0]
                  00017178    00000054     libcrc_xwr16xx.aer4f : crc.oer4f (.text:CRC_getTransactionId)
                  000171cc    00000054     libdma_xwr16xx.aer4f : dma.oer4f (.text:DMA_freeChannel)
                  00017220    00000054     libedma_xwr16xx.aer4f : edma.oer4f (.text:EDMA_error_isr)
                  00017274    00000054     libmmwave_xwr16xx.aer4f : mmwave_link.oer4f (.text:MMWave_initLink)
                  000172c8    00000054     mss_main.oer4f (.text:MmwDemo_CfgUpdate)
                  0001731c    00000054     rtsv7R4_T_le_v3D16_eabi.lib : ltoa.obj (.text)
                  00017370    00000054     mmw_mss_per4ft.oer4ft (.text:ti_sysbios_family_arm_v7r_vim_Hwi_create)
                  000173c4    0000000a     libdpm_xwr16xx.aer4f : dpm_core.oer4f (.text:DPM_chirpISR)
                  000173ce    00000002     --HOLE-- [fill = 0]
                  000173d0    00000054     sysbios.aer4ft : BIOS.obj (.text:ti_sysbios_heaps_HeapMem_getStats__E)
                  00017424    0000000a     libdpm_xwr16xx.aer4f : dpm_core.oer4f (.text:DPM_frameStartISR)
                  0001742e    00000002     --HOLE-- [fill = 0]
                  00017430    00000054     sysbios.aer4ft : BIOS.obj (.text:xdc_runtime_Core_assignLabel__I)
                  00017484    00000050     libcrc_xwr16xx.aer4f : crc.oer4f (.text:CRC_getSignature)
                  000174d4    00000050     libdpm_xwr16xx.aer4f : dpm_core.oer4f (.text:DPM_synch)
                  00017524    00000050     libedma_xwr16xx.aer4f : edma_low_level.oer4f (.text:EDMA3MapChToEvtQ)
                  00017574    00000050     libmmwave_xwr16xx.aer4f : mmwave.oer4f (.text:MMWave_sync)
                  000175c4    00000050     mmw_cli.oer4f (.text:MmwDemo_CLIMultiObjBeamForming)
                  00017614    00000050     mss_main.oer4f (.text:MmwDemo_resetStaticCfgPendingState)
                  00017664    00000050     mss_main.oer4f (.text:mmwDemo_mssDPMTask)
                  000176b4    00000050     libmmwavelink_xwr16xx.aer4f : rl_driver.oer4f (.text:rlDeviceIdentifyCmdDir)
                  00017704    00000050                                 : rl_driver.oer4f (.text:rlDriverVerifyCRC)
                  00017754    00000050     rtsv7R4_T_le_v3D16_eabi.lib : atoi.obj (.text)
                  000177a4    00000050                                 : exit.obj (.text)
                  000177f4    00000050                                 : u_div32.obj (.text)
                  00017844    0000000a     libosal_xwr16xx.aer4f : MemoryP_tirtos.oer4f (.text:MemoryP_ctrlFree)
                  0001784e    00000002     --HOLE-- [fill = 0]
                  00017850    00000050     sysbios.aer4ft : BIOS.obj (.text:xdc_runtime_System_exit__E)
                  000178a0    0000004c     libcli_xwr16xx.aer4f : cli.oer4f (.text:CLI_write)
                  000178ec    0000004c     libedma_xwr16xx.aer4f : edma.oer4f (.text:EDMA_disableChannel)
                  00017938    0000004c                           : edma.oer4f (.text:EDMA_enableChannel)
                  00017984    0000004c     libmailbox_xwr16xx.aer4f : mailbox.oer4f (.text:Mailbox_boxEmptyISRProcessing)
                  000179d0    0000004c     mmw_lvds_stream.oer4f (.text:MmwDemo_LVDSStream_EDMAAllocateCBUFFChannel)
                  00017a1c    0000004c     libuart_xwr16xx.aer4f : uartsci.oer4f (.text:UartSci_writeCancel)
                  00017a68    0000004c     rtsv7R4_T_le_v3D16_eabi.lib : cpy_tbl.obj (.text)
                  00017ab4    0000000a     mss_main.oer4f (.text:MmwDemo_resetDynObjDetCfgPendingState)
                  00017abe    00000002     --HOLE-- [fill = 0]
                  00017ac0    0000004c     sysbios.aer4ft : BIOS.obj (.text:ti_sysbios_family_arm_v7r_vim_Hwi_getStackInfo__E)
                  00017b0c    0000004c     mmw_mss_per4ft.oer4ft (.text:ti_sysbios_knl_Task_create)
                  00017b58    00000006     libedma_xwr16xx.aer4f : edma_low_level.oer4f (.text:EDMA3GetCCErrStatus)
                  00017b5e    00000002     --HOLE-- [fill = 0]
                  00017b60    0000004c     sysbios.aer4ft : BIOS.obj (.text:ti_sysbios_knl_Task_stat__E)
                  00017bac    00000004     mmw_mss_per4ft.oer4ft (.text:ti_sysbios_family_arm_TaskSupport_Module__startupDone__S)
                  00017bb0    0000004c     sysbios.aer4ft : BIOS.obj (.text:ti_sysbios_utils_Load_taskSwitchHook__E)
                  00017bfc    0000004a     libdpm_xwr16xx.aer4f : dpm_mailbox.oer4f (.text:DPM_mboxSendResult)
                  00017c46    0000004a     libmailbox_xwr16xx.aer4f : mailbox.oer4f (.text:Mailbox_boxFullISRProcessing)
                  00017c90    0000004a     sysbios.aer4ft : BIOS.obj (.text:xdc_runtime_Core_assignParams__I)
                  00017cda    00000006     libedma_xwr16xx.aer4f : edma_low_level.oer4f (.text:EDMA3GetErrIntrStatus)
                  00017ce0    0000004a     sysbios.aer4ft : BIOS.obj (.text:xdc_runtime_Text_xprintf__I)
                  00017d2a    00000048     libcbuff_xwr16xx.aer4f : cbuff_transfer.oer4f (.text:CBUFF_setup_USER)
                  00017d72    00000048     libdpm_xwr16xx.aer4f : dpm_pipe.oer4f (.text:DPM_pipeRecv)
                  00017dba    00000048     libmmwavelink_xwr16xx.aer4f : rl_device.oer4f (.text:rlDeviceGetVersion)
                  00017e02    00000002     --HOLE-- [fill = 0]
                  00017e04    00000048                                 : rl_driver.oer4f (.text:rlDriverOsiInit)
                  00017e4c    00000048     mmw_mss_per4ft.oer4ft (.text:xdc_runtime_LoggerBuf_Object__create__S)
                  00017e94    00000046     libmailbox_xwr16xx.aer4f : mailbox.oer4f (.text:CSL_FINSR)
                  00017eda    00000002     --HOLE-- [fill = 0]
                  00017edc    00000044     libadcbuf_xwr16xx.aer4f : adcbuf_mmwave.oer4f (.text:ADCBUF_MMWave_close)
                  00017f20    00000044     libcrc_xwr16xx.aer4f : crc.oer4f (.text:CRC_resetSignature)
                  00017f64    00000044     libdpm_xwr16xx.aer4f : dpm_core.oer4f (.text:DPM_start)
                  00017fa8    00000044                          : dpm_core.oer4f (.text:DPM_stop)
                  00017fec    00000044     libedma_xwr16xx.aer4f : edma.oer4f (.text:EDMA_linkParamSets)
                  00018030    00000044     libmailbox_xwr16xx.aer4f : mailbox.oer4f (.text:Mailbox_boxFullISRMssDss)
                  00018074    00000044     rtsv7R4_T_le_v3D16_eabi.lib : hostclose.obj (.text)
                  000180b8    00000044                                 : hostunlink.obj (.text)
                  000180fc    00000004     mmw_mss_per4ft.oer4ft (.text:ti_sysbios_family_arm_v7r_vim_Hwi_delete)
                  00018100    00000044     sysbios.aer4ft : BIOS.obj (.text:ti_sysbios_family_arm_v7r_tms570_Core_Module_startup__E)
                  00018144    0000000a     libosal_xwr16xx.aer4f : SemaphoreP_tirtos.oer4f (.text:SemaphoreP_post)
                  0001814e    00000002     --HOLE-- [fill = 0]
                  00018150    00000044     sysbios.aer4ft : BIOS.obj (.text:ti_sysbios_knl_Task_allBlockedFunction__I)
                  00018194    0000000a     libuart_xwr16xx.aer4f : UART.oer4f (.text:UART_read)
                  0001819e    00000002     --HOLE-- [fill = 0]
                  000181a0    00000044     sysbios.aer4ft : BIOS.obj (.text:xdc_runtime_LoggerBuf_Module_startup__E)
                  000181e4    0000000a     libuart_xwr16xx.aer4f : UART.oer4f (.text:UART_write)
                  000181ee    00000002     --HOLE-- [fill = 0]
                  000181f0    00000044     sysbios.aer4ft : BIOS.obj (.text:xdc_runtime_System_atexit__E)
                  00018234    00000042     libcbuff_xwr16xx.aer4f : cbuff_lvds.oer4f (.text:CBUFF_closeLVDS)
                  00018276    00000042     libmmwave_xwr16xx.aer4f : mmwave_link.oer4f (.text:MMWave_executeLink)
                  000182b8    00000042     libmmwavelink_xwr16xx.aer4f : rl_controller.oer4f (.text:rlGetSubBlock)
                  000182fa    00000040     mmw_cli.oer4f (.text:MmwDemo_CLIClutterRemoval)
                  0001833a    00000040     mmw_cli.oer4f (.text:MmwDemo_CLIExtendedMaxVelocity)
                  0001837a    00000040     libmmwavelink_xwr16xx.aer4f : rl_driver.oer4f (.text:rlDriverValidateHdr)
                  000183ba    00000002     --HOLE-- [fill = 0]
                  000183bc    00000040     rtsv7R4_T_le_v3D16_eabi.lib : strtok.obj (.text)
                  000183fc    00000004     mmw_mss_per4ft.oer4ft (.text:ti_sysbios_heaps_HeapMem_Module_GateProxy_enter__E)
                  00018400    00000040     sysbios.aer4ft : BIOS.obj (.text:ti_sysbios_timers_rti_Timer_stop__E)
                  00018440    0000003e     libadcbuf_xwr16xx.aer4f : adcbuf_mmwave.oer4f (.text:CSL_FINSR)
                  0001847e    0000003e     libcbuff_xwr16xx.aer4f : cbuff.oer4f (.text:CSL_FINSR)
                  000184bc    0000003e                            : cbuff_lvds.oer4f (.text:CSL_FINSR)
                  000184fa    0000003e     libcrc_xwr16xx.aer4f : crc.oer4f (.text:CSL_FINSR)
                  00018538    0000003e     libdma_xwr16xx.aer4f : dma.oer4f (.text:CSL_FINSR)
                  00018576    0000003e     libgpio_xwr16xx.aer4f : gpio.oer4f (.text:CSL_FINSR)
                  000185b4    0000003e     libpinmux_xwr16xx.aer4f : pinmux.oer4f (.text:CSL_FINSR)
                  000185f2    0000003e     libsoc_xwr16xx.aer4f : soc.oer4f (.text:CSL_FINSR)
                  00018630    0000003e                          : soc_xwr16xx.oer4f (.text:CSL_FINSR)
                  0001866e    0000003e                          : soc_xwr16xx_mss.oer4f (.text:CSL_FINSR)
                  000186ac    0000003e     libuart_xwr16xx.aer4f : uartsci.oer4f (.text:CSL_FINSR)
                  000186ea    0000003e     libdpm_xwr16xx.aer4f : dpm_msg.oer4f (.text:DPM_msgStopHandler)
                  00018728    0000003e     libmmwave_xwr16xx.aer4f : mmwave.oer4f (.text:MMWave_decodeError)
                  00018766    0000003e     libuart_xwr16xx.aer4f : uartsci.oer4f (.text:UartSci_close)
                  000187a4    0000003e     mmwdemo_monitor.oer4f (.text:mmwDemo_cfgAnalogMonitor)
                  000187e2    0000003c     libcbuff_xwr16xx.aer4f : cbuff_transfer.oer4f (.text:CBUFF_configCQEDMA)
                  0001881e    00000002     --HOLE-- [fill = 0]
                  00018820    0000003c     libcli_xwr16xx.aer4f : cli_mmwave.oer4f (.text:CLI_MMWaveFlushCfg)
                  0001885c    0000003c     libedma_xwr16xx.aer4f : edma.oer4f (.text:EDMA_chainChannels)
                  00018898    0000003c                           : edma.oer4f (.text:EDMA_getErrorStatus)
                  000188d4    0000003c     libmailbox_xwr16xx.aer4f : mailbox.oer4f (.text:Mailbox_writeReset)
                  00018910    0000003c     libsoc_xwr16xx.aer4f : soc.oer4f (.text:SOC_unhaltBSS)
                  0001894c    0000003c     sysbios.aer4ft : vim_Hwi_asm.obj (.text:ti_sysbios_family_arm_v7r_vim_Hwi_init__I)
                  00018988    00000006     libedma_xwr16xx.aer4f : edma_low_level.oer4f (.text:EDMA3QdmaGetErrIntrStatus)
                  0001898e    00000002     --HOLE-- [fill = 0]
                  00018990    0000003c     sysbios.aer4ft : BIOS.obj (.text:ti_sysbios_hal_Hwi_checkStack)
                  000189cc    00000004     mmw_mss_per4ft.oer4ft (.text:ti_sysbios_heaps_HeapMem_Module_GateProxy_leave__E)
                  000189d0    0000003c     sysbios.aer4ft : BIOS.obj (.text:ti_sysbios_heaps_HeapMem_init__I)
                  00018a0c    0000003a     libosal_xwr16xx.aer4f : HwiP_tirtos.oer4f (.text:HwiP_delete)
                  00018a46    00000038     libcbuff_xwr16xx.aer4f : cbuff_transfer.oer4f (.text:CBUFF_addUserBufferLLEntry)
                  00018a7e    00000038                            : cbuff_transfer.oer4f (.text:CBUFF_setupHeader)
                  00018ab6    00000002     --HOLE-- [fill = 0]
                  00018ab8    00000038     libcli_xwr16xx.aer4f : cli_mmwave.oer4f (.text:CLI_MMWaveExtensionInit)
                  00018af0    00000038     libedma_xwr16xx.aer4f : edma_low_level.oer4f (.text:EDMA3ClrMissEvt)
                  00018b28    00000038     libuart_xwr16xx.aer4f : UART.oer4f (.text:UART_init)
                  00018b60    00000036     libmmwavelink_xwr16xx.aer4f : rl_controller.oer4f (.text:rlAppendSubBlock)
                  00018b96    00000036     rtsv7R4_T_le_v3D16_eabi.lib : strncpy.obj (.text)
                  00018bcc    00000034     libadcbuf_xwr16xx.aer4f : ADCBuf.oer4f (.text:ADCBuf_open)
                  00018c00    00000034     libedma_xwr16xx.aer4f : edma.oer4f (.text:EDMA_configTransferControllerError)
                  00018c34    00000034     libmmwave_xwr16xx.aer4f : mmwave_link.oer4f (.text:MMWave_mboxWrite)
                  00018c68    00000034     libsoc_xwr16xx.aer4f : soc_xwr16xx_mss.oer4f (.text:SOC_isSecureDevice)
                  00018c9c    00000034                          : soc_xwr16xx.oer4f (.text:SOC_setMMWaveDSSLinkState)
                  00018cd0    00000034                          : soc_xwr16xx.oer4f (.text:SOC_setMMWaveMSSLinkState)
                  00018d04    00000034                          : soc_xwr16xx.oer4f (.text:SOC_setMSSLinkState)
                  00018d38    00000034     libuart_xwr16xx.aer4f : UART.oer4f (.text:UART_open)
                  00018d6c    00000004     mmw_mss_per4ft.oer4ft (.text:ti_sysbios_knl_Clock_TimerProxy_getMaxTicks__E)
                  00018d70    00000034     sysbios.aer4ft : BIOS.obj (.text:ti_sysbios_family_arm_a15_TimestampProvider_get64__E)
                  00018da4    00000034     mmw_mss_per4ft.oer4ft (.text:ti_sysbios_knl_Semaphore_create)
                  00018dd8    00000032     libcrc_xwr16xx.aer4f : crc.oer4f (.text:CRC_getCRCDataSelectBitValue)
                  00018e0a    00000002     --HOLE-- [fill = 0]
                  00018e0c    00000032                          : crc.oer4f (.text:CRC_getCRCTypeBitValue)
                  00018e3e    00000032     libedma_xwr16xx.aer4f : edma.oer4f (.text:EDMA_configQueueThreshold)
                  00018e70    00000032     sysbios.aer4ft : BIOS.obj (.text:ti_sysbios_hal_Hwi_initStack)
                  00018ea2    00000002     --HOLE-- [fill = 0]
                  00018ea4    00000030     libadcbuf_xwr16xx.aer4f : ADCBuf.oer4f (.text:ADCBuf_init)
                  00018ed4    00000030     libcbuff_xwr16xx.aer4f : cbuff_transfer.oer4f (.text:CBUFF_addCQLLEntry)
                  00018f04    00000030     libmmwave_xwr16xx.aer4f : mmwave_listlib.oer4f (.text:MMWave_listRemoveNode)
                  00018f34    00000030     libsoc_xwr16xx.aer4f : soc.oer4f (.text:SOC_getDevicePartNumber)
                  00018f64    00000030     libmmwavelink_xwr16xx.aer4f : rl_sensor.oer4f (.text:rlSensorStart)
                  00018f94    00000030     mmw_mss_per4ft.oer4ft (.text:ti_sysbios_BIOS_startFunc__I)
                  00018fc4    0000000a     libuart_xwr16xx.aer4f : UART.oer4f (.text:UART_writePolling)
                  00018fce    00000002     --HOLE-- [fill = 0]
                  00018fd0    00000030     sysbios.aer4ft : BIOS.obj (.text:ti_sysbios_family_arm_TaskSupport_start__E)
                  00019000    00000030     mmw_mss_per4ft.oer4ft (.text:ti_sysbios_gates_GateHwi_Object__create__S)
                  00019030    00000030     mmw_mss_per4ft.oer4ft (.text:ti_sysbios_gates_GateMutex_Object__create__S)
                  00019060    00000030     mmw_mss_per4ft.oer4ft (.text:ti_sysbios_heaps_HeapMem_Object__create__S)
                  00019090    00000030     sysbios.aer4ft : BIOS.obj (.text:ti_sysbios_heaps_HeapMem_free__E)
                  000190c0    00000030     mmw_mss_per4ft.oer4ft (.text:ti_sysbios_knl_Semaphore_construct)
                  000190f0    0000002f     sysbios.aer4ft : BIOS.obj (.text:xdc_runtime_Text_printVisFxn__I)
                  0001911f    00000001     --HOLE-- [fill = 0]
                  00019120    0000002e     libdpm_xwr16xx.aer4f : dpm_msg.oer4f (.text:DPM_msgStartHandler)
                  0001914e    00000002     --HOLE-- [fill = 0]
                  00019150    0000002e     sysbios.aer4ft : BIOS.obj (.text:ti_sysbios_knl_Semaphore_pendTimeout__I)
                  0001917e    0000002e     mmw_mss_per4ft.oer4ft (.text:ti_sysbios_rts_MemAlloc_alloc)
                  000191ac    0000002c     libdpm_xwr16xx.aer4f : dpm_pipe.oer4f (.text:DPM_pipeInit)
                  000191d8    0000002c     libedma_xwr16xx.aer4f : edma.oer4f (.text:EDMA_validate_channelIdchannelType)
                  00019204    0000002c     libgpio_xwr16xx.aer4f : gpio.oer4f (.text:GPIO_HighPriorityISR)
                  00019230    0000002c                           : gpio.oer4f (.text:GPIO_LowPriorityISR)
                  0001925c    0000002c     libmmwave_xwr16xx.aer4f : mmwave_osal.oer4f (.text:MMWave_osalMutexCreate)
                  00019288    0000002c                             : mmwave_osal.oer4f (.text:MMWave_osalSemCreate)
                  000192b4    0000002c     libsoc_xwr16xx.aer4f : soc_xwr16xx_mss.oer4f (.text:SOC_waitBSSPowerUp)
                  000192e0    0000002c     libmmwavelink_xwr16xx.aer4f : rl_device.oer4f (.text:rlDeviceGetMssVersion)
                  0001930c    0000002c                                 : rl_sensor.oer4f (.text:rlSensorStop)
                  00019338    0000002c     rtsv7R4_T_le_v3D16_eabi.lib : unlink.obj (.text)
                  00019364    0000002c     mmw_mss_per4ft.oer4ft (.text:ti_sysbios_BIOS_atExitFunc__I)
                  00019390    0000002c     mmw_mss_per4ft.oer4ft (.text:ti_sysbios_knl_Clock_doTick__I)
                  000193bc    0000002c     mmw_mss_per4ft.oer4ft (.text:ti_sysbios_knl_Queue_construct)
                  000193e8    00000006     libosal_xwr16xx.aer4f : HwiP_tirtos.oer4f (.text:HwiP_restore)
                  000193ee    00000002     --HOLE-- [fill = 0]
                  000193f0    0000002c     sysbios.aer4ft : BIOS.obj (.text:ti_sysbios_timers_rti_Timer_periodicStub__E)
                  0001941c    0000002a     libdpm_xwr16xx.aer4f : dpm_pipe.oer4f (.text:DPM_pipeDeinit)
                  00019446    0000002a     libedma_xwr16xx.aer4f : edma.oer4f (.text:EDMA_isError)
                  00019470    0000002a     mmwdemo_adcconfig.oer4f (.text:MmwDemo_ADCBufOpen)
                  0001949a    0000002a     libsoc_xwr16xx.aer4f : soc.oer4f (.text:SOC_SystemISR)
                  000194c4    0000002a     libmmwavelink_xwr16xx.aer4f : rl_device.oer4f (.text:rlDeviceGetMmWaveLinkVersion)
                  000194ee    0000002a     rtsv7R4_T_le_v3D16_eabi.lib : strspn.obj (.text)
                  00019518    00000028     libcbuff_xwr16xx.aer4f : cbuff.oer4f (.text:CBUFF_ErrorISR)
                  00019540    00000028                            : cbuff.oer4f (.text:CBUFF_FrameStartISR)
                  00019568    00000028     libdpm_xwr16xx.aer4f : dpm_mailbox.oer4f (.text:DPM_mboxDeinit)
                  00019590    00000028                          : dpm_msg.oer4f (.text:DPM_msgInitHeader)
                  000195b8    00000028     libmailbox_xwr16xx.aer4f : mailbox.oer4f (.text:Mailbox_Config_init)
                  000195e0    00000028     libuart_xwr16xx.aer4f : uartsci_dma.oer4f (.text:UartSci_RxDMACallbackFxn)
                  00019608    00000028                           : uartsci_dma.oer4f (.text:UartSci_TxDMACallbackFxn)
                  00019630    00000028     libmmwavelink_xwr16xx.aer4f : rl_driver.oer4f (.text:rlDriverConstructInMsg)
                  00019658    00000028     rtsv7R4_T_le_v3D16_eabi.lib : lseek.obj (.text)
                  00019680    00000028                                 : write.obj (.text)
                  000196a8    00000006     libmmwavelink_xwr16xx.aer4f : rl_controller.oer4f (.text:rlGetSubBlockId)
                  000196ae    00000002     --HOLE-- [fill = 0]
                  000196b0    00000028     sysbios.aer4ft : BIOS.obj (.text:ti_sysbios_knl_Idle_run__E)
                  000196d8    00000006     libmmwavelink_xwr16xx.aer4f : rl_controller.oer4f (.text:rlGetSubBlockLen)
                  000196de    00000002     --HOLE-- [fill = 0]
                  000196e0    00000028     sysbios.aer4ft : BIOS.obj (.text:xdc_runtime_SysStd_abort__E)
                  00019708    00000006                    : a15_TimestampProvider_asm.obj (.text:ti_sysbios_family_arm_a15_TimestampProvider_get32__E)
                  0001970e    00000002     --HOLE-- [fill = 0]
                  00019710    00000028                    : BIOS.obj (.text:xdc_runtime_System_aprintf_va__F)
                  00019738    00000026     libedma_xwr16xx.aer4f : edma.oer4f (.text:EDMA_check4kSiErrata_boundaryCheckUtil)
                  0001975e    00000026     mmwdemo_monitor.oer4f (.text:mmwDemo_cfgRxSaturationMonitor)
                  00019784    00000026     libmmwavelink_xwr16xx.aer4f : rl_monitoring.oer4f (.text:rlRfAnaMonConfig)
                  000197aa    00000026                                 : rl_sensor.oer4f (.text:rlRfInitCalibConfig)
                  000197d0    00000026                                 : rl_sensor.oer4f (.text:rlRfRunTimeCalibConfig)
                  000197f6    00000026                                 : rl_monitoring.oer4f (.text:rlRfRxIfSatMonConfig)
                  0001981c    00000026                                 : rl_monitoring.oer4f (.text:rlRfRxSigImgMonConfig)
                  00019842    00000026                                 : rl_sensor.oer4f (.text:rlRfSetCalMonFreqLimitConfig)
                  00019868    00000026                                 : rl_sensor.oer4f (.text:rlRfSetDeviceCfg)
                  0001988e    00000026                                 : rl_sensor.oer4f (.text:rlSetAdcOutConfig)
                  000198b4    00000026                                 : rl_sensor.oer4f (.text:rlSetBpmCommonConfig)
                  000198da    00000026                                 : rl_sensor.oer4f (.text:rlSetChannelConfig)
                  00019900    00000026                                 : rl_sensor.oer4f (.text:rlSetContModeConfig)
                  00019926    00000026     rtsv7R4_T_le_v3D16_eabi.lib : memcmp.obj (.text)
                  0001994c    00000004     mmw_mss_per4ft.oer4ft (.text:ti_sysbios_knl_Semaphore_delete)
                  00019950    00000026     sysbios.aer4ft : BIOS.obj (.text:xdc_runtime_System_printf_va__F)
                  00019976    00000002     --HOLE-- [fill = 0]
                  00019978    00000025     mss_main.oer4f (.text:_MmwDemo_debugAssert)
                  0001999d    00000001     --HOLE-- [fill = 0]
                  0001999e    00000024     libcrc_xwr16xx.aer4f : crc.oer4f (.text:CRC_isTransactionIdValid)
                  000199c2    00000002     --HOLE-- [fill = 0]
                  000199c4    00000024     libedma_xwr16xx.aer4f : edma_low_level.oer4f (.text:EDMA3ClrEvt)
                  000199e8    00000024                           : edma_low_level.oer4f (.text:EDMA3ClrIntr)
                  00019a0c    00000024                           : edma_low_level.oer4f (.text:EDMA3DisableEvtIntr)
                  00019a30    00000024                           : edma_low_level.oer4f (.text:EDMA3EnableDmaEvt)
                  00019a54    00000024                           : edma_low_level.oer4f (.text:EDMA3EnableEvtIntr)
                  00019a78    00000024     libgpio_xwr16xx.aer4f : gpio.oer4f (.text:GPIO_processInterrupt)
                  00019a9c    00000024     libhsiheader_xwr16xx.aer4f : hsiheader.oer4f (.text:HSIHeader_processUserBuffer)
                  00019ac0    00000024     libsoc_xwr16xx.aer4f : soc_xwr16xx.oer4f (.text:SOC_isDSSOperational)
                  00019ae4    00000024                          : soc_xwr16xx.oer4f (.text:SOC_isMMWaveDSSOperational)
                  00019b08    00000024                          : soc_xwr16xx.oer4f (.text:SOC_isMMWaveMSSOperational)
                  00019b2c    00000024     libmmwavelink_xwr16xx.aer4f : rl_device.oer4f (.text:rlDeviceSetHsiClk)
                  00019b50    00000024                                 : rl_sensor.oer4f (.text:rlEnableContMode)
                  00019b74    00000024                                 : rl_sensor.oer4f (.text:rlRfSetCalMonTimeUnitConfig)
                  00019b98    00000024                                 : rl_sensor.oer4f (.text:rlSetLowPowerModeConfig)
                  00019bbc    00000024     mmw_mss_per4ft.oer4ft (.text:ti_sysbios_BIOS_registerRTSLock__I)
                  00019be0    00000024     mmw_mss_per4ft.oer4ft (.text:ti_sysbios_BIOS_removeRTSLock__I)
                  00019c04    00000024     mmw_mss_per4ft.oer4ft (.text:ti_sysbios_gates_GateMutex_Object__delete__S)
                  00019c28    00000004     mmw_mss_per4ft.oer4ft (.text:xdc_runtime_LoggerBuf_Module_GateProxy_enter__E)
                  00019c2c    00000004     mmw_mss_per4ft.oer4ft (.text:xdc_runtime_LoggerBuf_Module_GateProxy_leave__E)
                  00019c30    00000024     sysbios.aer4ft : BIOS.obj (.text:ti_sysbios_knl_Clock_Module_startup__E)
                  00019c54    00000024     mmw_mss_per4ft.oer4ft (.text:ti_sysbios_knl_Semaphore_Object__delete__S)
                  00019c78    00000022     libcbuff_xwr16xx.aer4f : cbuff_transfer.oer4f (.text:CBUFF_initLinkedList)
                  00019c9a    00000022     libuart_xwr16xx.aer4f : uartsci.oer4f (.text:UartSci_disableRxDMA)
                  00019cbc    00000022                           : uartsci.oer4f (.text:UartSci_enableRxDMA)
                  00019cde    00000022     rtsv7R4_T_le_v3D16_eabi.lib : strcspn.obj (.text)
                  00019d00    00000020     libdpm_xwr16xx.aer4f : dpm_listlib.oer4f (.text:DPM_listCat)
                  00019d20    00000020     libedma_xwr16xx.aer4f : edma_low_level.oer4f (.text:EDMA3DisableDmaEvt)
                  00019d40    00000020                           : edma_low_level.oer4f (.text:EDMA3QdmaClrMissEvt)
                  00019d60    00000020     libesm_xwr16xx.aer4f : esm.oer4f (.text:ESM_lowpriority_IRQ)
                  00019d80    00000020     libhsiheader_xwr16xx.aer4f : hsiheader.oer4f (.text:HSIHeader_processCQ)
                  00019da0    00000020     libmmwave_xwr16xx.aer4f : mmwave_listlib.oer4f (.text:MMWave_listCat)
                  00019dc0    00000020     mss_main.oer4f (.text:MmwDemo_DPM_ioctl_blocking)
                  00019de0    00000020     libpinmux_xwr16xx.aer4f : pinmux.oer4f (.text:Pinmux_Unlock)
                  00019e00    00000020     libmmwavelink_xwr16xx.aer4f : rl_sensor.oer4f (.text:rlRfInit)
                  00019e20    00000020     sysbios.aer4ft : BIOS.obj (.text:ti_sysbios_family_arm_TaskSupport_stackUsed__E)
                  00019e40    00000020                    : BIOS.obj (.text:ti_sysbios_family_arm_a15_TimestampProvider_autoRefreshFxn__I)
                  00019e60    00000020                    : BIOS.obj (.text:ti_sysbios_family_arm_v7a_Pmu_Module_startup__E)
                  00019e80    00000020     mmw_mss_per4ft.oer4ft (.text:ti_sysbios_family_arm_v7r_vim_Hwi_Object__delete__S)
                  00019ea0    00000020     sysbios.aer4ft : BIOS.obj (.text:ti_sysbios_family_arm_v7r_vim_Hwi_disableInterrupt__E)
                  00019ec0    00000020                    : BIOS.obj (.text:ti_sysbios_family_arm_v7r_vim_Hwi_enableInterrupt__E)
                  00019ee0    00000020     mmw_mss_per4ft.oer4ft (.text:ti_sysbios_gates_GateHwi_Object__delete__S)
                  00019f00    00000020     mmw_mss_per4ft.oer4ft (.text:ti_sysbios_heaps_HeapMem_Object__delete__S)
                  00019f20    00000020     mmw_mss_per4ft.oer4ft (.text:ti_sysbios_knl_Semaphore_destruct)
                  00019f40    00000020     mmw_mss_per4ft.oer4ft (.text:xdc_runtime_LoggerBuf_Object__delete__S)
                  00019f60    0000001e     libdpm_xwr16xx.aer4f : dpm_pipe.oer4f (.text:DPM_pipeDequeue)
                  00019f7e    0000001e     libmmwave_xwr16xx.aer4f : mmwave_fullcfg.oer4f (.text:MMWave_internalDelChirp)
                  00019f9c    0000001e     libsoc_xwr16xx.aer4f : soc_xwr16xx_mss.oer4f (.text:SOC_getOutAddr_LUTType)
                  00019fba    0000001e     mmwdemo_monitor.oer4f (.text:mmwDemo_cfgRxSigImgMonitor)
                  00019fd8    0000001e     mmw_mss_per4ft.oer4ft (.text:ti_sysbios_BIOS_errorRaiseHook__I)
                  00019ff6    0000001c     libcrc_xwr16xx.aer4f : crc.oer4f (.text:CRC_releaseTransactionId)
                  0001a012    0000001c     libadcbuf_xwr16xx.aer4f : adcbuf_mmwave.oer4f (.text:CSL_FEXTR)
                  0001a02e    0000001c     libcbuff_xwr16xx.aer4f : cbuff.oer4f (.text:CSL_FEXTR)
                  0001a04a    0000001c                            : cbuff_lvds.oer4f (.text:CSL_FEXTR)
                  0001a066    0000001c     libdma_xwr16xx.aer4f : dma.oer4f (.text:CSL_FEXTR)
                  0001a082    0000001c     libhsiheader_xwr16xx.aer4f : hsiheader.oer4f (.text:CSL_FEXTR)
                  0001a09e    0000001c     libmmwave_xwr16xx.aer4f : mmwave.oer4f (.text:CSL_FEXTR)
                  0001a0ba    0000001c     libsoc_xwr16xx.aer4f : soc.oer4f (.text:CSL_FEXTR)
                  0001a0d6    0000001c                          : soc_xwr16xx.oer4f (.text:CSL_FEXTR)
                  0001a0f2    0000001c                          : soc_xwr16xx_mss.oer4f (.text:CSL_FEXTR)
                  0001a10e    0000001c     libuart_xwr16xx.aer4f : uartsci.oer4f (.text:CSL_FEXTR)
                  0001a12a    0000001c     libdpm_xwr16xx.aer4f : dpm_listlib.oer4f (.text:DPM_listRemove)
                  0001a146    0000001c     libmmwave_xwr16xx.aer4f : mmwave_listlib.oer4f (.text:MMWave_listRemove)
                  0001a162    0000001c     libsoc_xwr16xx.aer4f : soc_xwr16xx_mss.oer4f (.text:SOC_getInAddr_LUTType)
                  0001a17e    00000002     --HOLE-- [fill = 0]
                  0001a180    0000001c     sysbios.aer4ft : arm_TaskSupport_asm.obj (.text:_ti_sysbios_family_arm_TaskSupport_glue)
                  0001a19c    0000001c                    : arm_TaskSupport_asm.obj (.text:_ti_sysbios_family_arm_TaskSupport_swap__E)
                  0001a1b8    0000001c     rtsv7R4_T_le_v3D16_eabi.lib : memccpy.obj (.text)
                  0001a1d4    0000001c     mmw_mss_per4ft.oer4ft (.text:ti_sysbios_BIOS_rtsLock__I)
                  0001a1f0    0000001c     sysbios.aer4ft : BIOS.obj (.text:ti_sysbios_family_arm_v7r_vim_Hwi_clearInterrupt__E)
                  0001a20c    00000004     mmw_mss_per4ft.oer4ft (.text:xdc_runtime_System_Module_GateProxy_enter__E)
                  0001a210    0000001c     sysbios.aer4ft : BIOS.obj (.text:ti_sysbios_gates_GateMutex_Instance_init__E)
                  0001a22c    00000004     mmw_mss_per4ft.oer4ft (.text:xdc_runtime_System_Module_GateProxy_leave__E)
                  0001a230    0000001c     sysbios.aer4ft : BIOS.obj (.text:ti_sysbios_gates_GateMutex_leave__E)
                  0001a24c    0000001c     mmw_mss_per4ft.oer4ft (.text:ti_sysbios_knl_Queue_destruct)
                  0001a268    00000008     --HOLE-- [fill = 0]
                  0001a270    0000001c     sysbios.aer4ft : BIOS.obj (.text:ti_sysbios_knl_Task_restoreHwi__E)
                  0001a28c    00000004     --HOLE-- [fill = 0]
                  0001a290    0000001c                    : BIOS.obj (.text:xdc_runtime_LoggerBuf_Instance_finalize__E)
                  0001a2ac    0000001a     libcbuff_xwr16xx.aer4f : cbuff_lvds.oer4f (.text:CBUFF_finalizeLVDSLinkListParams)
                  0001a2c6    0000001a     libdpm_xwr16xx.aer4f : dpm_listlib.oer4f (.text:DPM_listAdd)
                  0001a2e0    0000001a                          : dpm_mailbox.oer4f (.text:DPM_mboxMsgSend)
                  0001a2fa    0000001a                          : dpm_msg.oer4f (.text:DPM_msgAssertHandler)
                  0001a314    0000001a                          : dpm_msg.oer4f (.text:DPM_msgDPCInfoHandler)
                  0001a32e    0000001a     libedma_xwr16xx.aer4f : edma_low_level.oer4f (.text:EDMA3SetPaRAM)
                  0001a348    0000001a     libmmwave_xwr16xx.aer4f : mmwave_dualcore.oer4f (.text:MMWave_deviceSyncFxn)
                  0001a362    0000001a                             : mmwave.oer4f (.text:MMWave_encodeError)
                  0001a37c    0000001a                             : mmwave_listlib.oer4f (.text:MMWave_listAdd)
                  0001a396    0000001a     mmw_mss_per4ft.oer4ft (.text:free)
                  0001a3b0    0000001a     libmmwavelink_xwr16xx.aer4f : rl_sensor.oer4f (.text:rlGetRfDieId)
                  0001a3ca    0000001a     rtsv7R4_T_le_v3D16_eabi.lib : s_copysign.obj (.text)
                  0001a3e4    0000001a     sysbios.aer4ft : a15_TimestampProvider_asm.obj (.text:ti_sysbios_family_arm_a15_TimestampProvider_initCCNT__I)
                  0001a3fe    0000001a     mmw_mss_per4ft.oer4ft (.text:xdc_runtime_System_aprintf__E)
                  0001a418    0000001a     mmw_mss_per4ft.oer4ft (.text:xdc_runtime_System_printf__E)
                  0001a432    00000018     libadcbuf_xwr16xx.aer4f : adcbuf_mmwave.oer4f (.text:ADCBUFContinuousModeCtrl)
                  0001a44a    00000002     --HOLE-- [fill = 0]
                  0001a44c    00000018     libcli_xwr16xx.aer4f : cli_mmwave.oer4f (.text:CLI_getMMWaveExtensionOpenConfig)
                  0001a464    00000018     libcbuff_xwr16xx.aer4f : cbuff_transfer.oer4f (.text:CSL_FINSR)
                  0001a47c    00000018     libdpm_xwr16xx.aer4f : dpm_msg.oer4f (.text:DPM_msgBSSFaultHandler)
                  0001a494    00000018     libedma_xwr16xx.aer4f : edma_low_level.oer4f (.text:EDMA3DisableQdmaEvt)
                  0001a4ac    00000018                           : edma_low_level.oer4f (.text:EDMA3EnableQdmaEvt)
                  0001a4c4    00000018     libmmwave_xwr16xx.aer4f : mmwave_osal.oer4f (.text:MMWave_osalMutexLock)
                  0001a4dc    00000018                             : mmwave_osal.oer4f (.text:MMWave_osalSemWait)
                  0001a4f4    00000018     libmailbox_xwr16xx.aer4f : mailbox.oer4f (.text:Mailbox_boxEmptyISRBss)
                  0001a50c    00000018                              : mailbox.oer4f (.text:Mailbox_boxEmptyISRMssDss)
                  0001a524    00000018                              : mailbox.oer4f (.text:Mailbox_boxFullISRBss)
                  0001a53c    00000018     libmmwavelink_xwr16xx.aer4f : rl_device.oer4f (.text:rlDeviceGetRfVersion)
                  0001a554    00000018                                 : rl_driver.oer4f (.text:rlDriverCalCRC)
                  0001a56c    00000018                                 : rl_driver.oer4f (.text:rlDriverFillPayload)
                  0001a584    00000018     rtsv7R4_T_le_v3D16_eabi.lib : args_main.obj (.text)
                  0001a59c    00000018                                 : strcmp.obj (.text)
                  0001a5b4    00000018     mmw_mss_per4ft.oer4ft (.text:ti_sysbios_BIOS_rtsUnlock__I)
                  0001a5cc    00000018     sysbios.aer4ft : BIOS.obj (.text:ti_sysbios_family_arm_v7a_Pmu_initCounters__I)
                  0001a5e4    00000018     mmw_mss_per4ft.oer4ft (.text:ti_sysbios_family_arm_v7r_vim_Hwi_Module__startupDone__F)
                  0001a5fc    00000018     mmw_mss_per4ft.oer4ft (.text:ti_sysbios_family_arm_v7r_vim_Hwi_Params__init__S)
                  0001a614    00000018     mmw_mss_per4ft.oer4ft (.text:ti_sysbios_gates_GateHwi_Handle__label__S)
                  0001a62c    00000018     mmw_mss_per4ft.oer4ft (.text:ti_sysbios_gates_GateMutex_Handle__label__S)
                  0001a644    00000018     mmw_mss_per4ft.oer4ft (.text:ti_sysbios_heaps_HeapMem_Handle__label__S)
                  0001a65c    00000018     mmw_mss_per4ft.oer4ft (.text:ti_sysbios_knl_Semaphore_Params__init__S)
                  0001a674    00000018     mmw_mss_per4ft.oer4ft (.text:ti_sysbios_knl_Task_Params__init__S)
                  0001a68c    00000004     --HOLE-- [fill = 0]
                  0001a690    00000018     sysbios.aer4ft : BIOS.obj (.text:ti_sysbios_knl_Task_enter__I)
                  0001a6a8    00000018     mmw_mss_per4ft.oer4ft (.text:ti_sysbios_timers_rti_Timer_Module__startupDone__F)
                  0001a6c0    00000018     sysbios.aer4ft : BIOS.obj (.text:xdc_runtime_Error_init__E)
                  0001a6d8    00000018     mmw_mss_per4ft.oer4ft (.text:xdc_runtime_LoggerBuf_Handle__label__S)
                  0001a6f0    00000016     libcbuff_xwr16xx.aer4f : cbuff_transfer.oer4f (.text:CBUFF_shutdownTransfer)
                  0001a706    00000016     rtsv7R4_T_le_v3D16_eabi.lib : strchr.obj (.text)
                  0001a71c    00000016                                 : strlen.obj (.text)
                  0001a732    00000016     mmw_mss_per4ft.oer4ft (.text:ti_sysbios_BIOS_exitFunc__I)
                  0001a748    00000008     --HOLE-- [fill = 0]
                  0001a750    00000016     sysbios.aer4ft : BIOS.obj (.text:ti_sysbios_knl_Idle_loop__E)
                  0001a766    0000000a     libmathutils.aer4f : mathutils.oer4f (.text:mathUtils_floorLog2)
                  0001a770    00000016     sysbios.aer4ft : BIOS.obj (.text:ti_sysbios_knl_Task_sleepTimeout__I)
                  0001a786    00000014     libosal_xwr16xx.aer4f : CycleprofilerP_tirtos.oer4f (.text:CycleprofilerP_init)
                  0001a79a    00000002     --HOLE-- [fill = 0]
                  0001a79c    00000014     libedma_xwr16xx.aer4f : edma_low_level.oer4f (.text:EDMA3GetIntrStatus)
                  0001a7b0    00000014                           : edma_low_level.oer4f (.text:EDMA3IntrStatusHighGet)
                  0001a7c4    00000014                           : edma_low_level.oer4f (.text:EDMA3MapQdmaChToPaRAM)
                  0001a7d8    00000014     libosal_xwr16xx.aer4f : HwiP_tirtos.oer4f (.text:HwiP_Params_init)
                  0001a7ec    00000014     libmmwave_xwr16xx.aer4f : mmwave_fullcfg.oer4f (.text:MMWave_internalDelBpmChirp)
                  0001a800    00000014                             : mmwave_fullcfg.oer4f (.text:MMWave_internalDelProfile)
                  0001a814    00000014                             : mmwave_osal.oer4f (.text:MMWave_osalMutexDelete)
                  0001a828    00000014                             : mmwave_osal.oer4f (.text:MMWave_osalSemDelete)
                  0001a83c    00000014     mmwdemo_rfparser.oer4f (.text:MmwDemo_RFParser_getNumSubFrames)
                  0001a850    00000014     libpinmux_xwr16xx.aer4f : pinmux.oer4f (.text:Pinmux_Lock)
                  0001a864    00000014     libuart_xwr16xx.aer4f : uartsci.oer4f (.text:UartSci_disableTxDMA)
                  0001a878    00000014                           : uartsci.oer4f (.text:UartSci_enableTxDMA)
                  0001a88c    00000014     libosal_xwr16xx.aer4f : DebugP_tirtos.oer4f (.text:_DebugP_assert)
                  0001a8a0    00000014     libmathutils.aer4f : mathutils.oer4f (.text:mathUtils_ceilLog2)
                  0001a8b4    00000014     libmmwavelink_xwr16xx.aer4f : rl_controller.oer4f (.text:rlAppendDummy)
                  0001a8c8    00000014                                 : rl_driver.oer4f (.text:rlDriverIsDeviceMapValid)
                  0001a8dc    00000014     rtsv7R4_T_le_v3D16_eabi.lib : _lock.obj (.text)
                  0001a8f0    00000014                                 : strcpy.obj (.text)
                  0001a904    00000014     mmw_mss_per4ft.oer4ft (.text:ti_sysbios_heaps_HeapMem_Object__get__S)
                  0001a918    00000014     mmw_mss_per4ft.oer4ft (.text:xdc_runtime_LoggerBuf_Object__get__S)
                  0001a92c    00000012     libcrc_xwr16xx.aer4f : crc.oer4f (.text:CRC_initConfigParams)
                  0001a93e    00000012     libedma_xwr16xx.aer4f : edma_low_level.oer4f (.text:EDMA3SetQdmaTrigWord)
                  0001a950    00000012     libosal_xwr16xx.aer4f : MemoryP_tirtos.oer4f (.text:MemoryP_ctrlAlloc)
                  0001a962    00000012                           : SemaphoreP_tirtos.oer4f (.text:SemaphoreP_pend)
                  0001a974    00000012     libmathutils.aer4f : mathutils.oer4f (.text:mathUtils_pow2roundup)
                  0001a986    0000000a     mmw_mss_per4ft.oer4ft (.text:xdc_runtime_IHeap_alloc)
                  0001a990    00000012     sysbios.aer4ft : BIOS.obj (.text:ti_sysbios_hal_Hwi_Module_startup__E)
                  0001a9a2    0000000e     libsoc_xwr16xx.aer4f : soc_xwr16xx_mss.oer4f (.text:SOC_microDelay)
                  0001a9b0    00000012     sysbios.aer4ft : BIOS.obj (.text:xdc_runtime_LoggerBuf_write1__E)
                  0001a9c2    0000000e     libosal_xwr16xx.aer4f : SemaphoreP_tirtos.oer4f (.text:SemaphoreP_delete)
                  0001a9d0    00000012     sysbios.aer4ft : BIOS.obj (.text:xdc_runtime_LoggerBuf_write2__E)
                  0001a9e2    00000012     mmw_mss_per4ft.oer4ft (.text:xdc_runtime_Startup_exec__I)
                  0001a9f4    00000010     libadcbuf_xwr16xx.aer4f : ADCBuf.oer4f (.text:ADCBuf_Params_init)
                  0001aa04    00000010     libcrc_xwr16xx.aer4f : crc.oer4f (.text:CRC_getSignatureRegister)
                  0001aa14    00000010     libmmwave_xwr16xx.aer4f : mmwave_dualcore.oer4f (.text:MMWave_deviceGetDeviceInfo)
                  0001aa24    0000000a     sysbios.aer4ft : tms570_Core_asm.obj (.text:ti_sysbios_family_arm_v7r_tms570_Core_getId__E)
                  0001aa2e    00000002     --HOLE-- [fill = 0]
                  0001aa30    00000010                    : BIOS.obj (.text:ti_sysbios_BIOS_getCpuFreq__E)
                  0001aa40    00000010                    : BIOS.obj (.text:ti_sysbios_BIOS_setThreadType__E)
                  0001aa50    00000010                    : BIOS.obj (.text:ti_sysbios_BIOS_start__E)
                  0001aa60    00000010                    : BIOS.obj (.text:ti_sysbios_family_arm_a15_TimestampProvider_Module_startup__E)
                  0001aa70    00000010                    : BIOS.obj (.text:ti_sysbios_family_arm_v7a_Pmu_disableInterruptI__E)
                  0001aa80    00000010                    : BIOS.obj (.text:ti_sysbios_family_arm_v7a_Pmu_enableInterruptI__E)
                  0001aa90    00000010                    : BIOS.obj (.text:ti_sysbios_family_arm_v7a_Pmu_getNumCounters__E)
                  0001aaa0    00000010                    : BIOS.obj (.text:ti_sysbios_family_arm_v7a_Pmu_startCounterI__E)
                  0001aab0    00000010                    : BIOS.obj (.text:ti_sysbios_family_arm_v7a_Pmu_stopCounterI__E)
                  0001aac0    00000010                    : BIOS.obj (.text:ti_sysbios_gates_GateMutex_Instance_finalize__E)
                  0001aad0    00000010     mmw_mss_per4ft.oer4ft (.text:ti_sysbios_heaps_HeapBuf_Object__get__S)
                  0001aae0    00000010     sysbios.aer4ft : BIOS.obj (.text:ti_sysbios_knl_Semaphore_Instance_finalize__E)
                  0001aaf0    00000010     mmw_mss_per4ft.oer4ft (.text:ti_sysbios_knl_Task_Object__get__S)
                  0001ab00    00000010     sysbios.aer4ft : BIOS.obj (.text:ti_sysbios_knl_Task_disable__E)
                  0001ab10    00000010                    : BIOS.obj (.text:xdc_runtime_LoggerBuf_write0__E)
                  0001ab20    00000010                    : BIOS.obj (.text:xdc_runtime_Memory_free__E)
                  0001ab30    0000000e     rtsv7R4_T_le_v3D16_eabi.lib : copy_decompress_none.obj (.text:decompress:none)
                  0001ab3e    0000000e     sysbios.aer4ft : a15_TimestampProvider_asm.obj (.text:ti_sysbios_family_arm_a15_TimestampProvider_getOverflowCCNT__I)
                  0001ab4c    00000004     --HOLE-- [fill = 0]
                  0001ab50    0000000e                    : BIOS.obj (.text:ti_sysbios_knl_Queue_empty__E)
                  0001ab5e    00000002     --HOLE-- [fill = 0]
                  0001ab60    0000000c                    : BIOS.obj (.text:ti_sysbios_family_arm_TaskSupport_checkStack__E)
                  0001ab6c    00000004     --HOLE-- [fill = 0]
                  0001ab70    0000000c                    : BIOS.obj (.text:ti_sysbios_family_arm_TaskSupport_getStackAlignment__E)
                  0001ab7c    00000004     --HOLE-- [fill = 0]
                  0001ab80    0000000c                    : BIOS.obj (.text:ti_sysbios_family_arm_exc_Exception_Module_startup__E)
                  0001ab8c    00000004     --HOLE-- [fill = 0]
                  0001ab90    0000000c                    : BIOS.obj (.text:ti_sysbios_family_arm_v7r_vim_Hwi_switchFromBootStack__E)
                  0001ab9c    00000004     --HOLE-- [fill = 0]
                  0001aba0    0000000c                    : BIOS.obj (.text:ti_sysbios_utils_Load_taskRegHook__E)
                  0001abac    00000004     --HOLE-- [fill = 0]
                  0001abb0    0000000c                    : BIOS.obj (.text:xdc_runtime_Startup_rtsDone__E)
                  0001abbc    00000004     --HOLE-- [fill = 0]
                  0001abc0    0000000c                    : BIOS.obj (.text:xdc_runtime_SysStd_exit__E)
                  0001abcc    0000000a     mmw_mss_per4ft.oer4ft (.text:xdc_runtime_IHeap_free)
                  0001abd6    0000000a     --HOLE-- [fill = 0]
                  0001abe0    0000000a     sysbios.aer4ft : BIOS.obj (.text:xdc_runtime_LoggerBuf_disable__E)
                  0001abea    00000006     --HOLE-- [fill = 0]
                  0001abf0    0000000a                    : BIOS.obj (.text:xdc_runtime_LoggerBuf_enable__E)
                  0001abfa    00000006     --HOLE-- [fill = 0]
                  0001ac00    00000008                    : BIOS.obj (.text:ti_sysbios_gates_GateHwi_enter__E)
                  0001ac08    00000008     --HOLE-- [fill = 0]
                  0001ac10    00000006                    : BIOS.obj (.text:ti_sysbios_family_arm_v7r_vim_Hwi_startup__E)
                  0001ac16    0000000a     --HOLE-- [fill = 0]
                  0001ac20    00000006                    : BIOS.obj (.text:ti_sysbios_gates_GateHwi_leave__E)
                  0001ac26    0000000a     --HOLE-- [fill = 0]
                  0001ac30    00000006                    : BIOS.obj (.text:ti_sysbios_heaps_HeapMem_isBlocking__E)
                  0001ac36    0000000a     --HOLE-- [fill = 0]
                  0001ac40    00000006                    : BIOS.obj (.text:ti_sysbios_knl_Queue_Instance_init__E)
                  0001ac46    0000000a     --HOLE-- [fill = 0]
                  0001ac50    00000006                    : BIOS.obj (.text:xdc_runtime_System_Module_startup__E)
                  0001ac56    0000000a     --HOLE-- [fill = 0]
                  0001ac60    00000004                    : BIOS.obj (.text:ti_sysbios_gates_GateHwi_query__E)
                  0001ac64    0000000c     --HOLE-- [fill = 0]
                  0001ac70    00000004                    : BIOS.obj (.text:ti_sysbios_gates_GateMutex_query__E)
                  0001ac74    0000000c     --HOLE-- [fill = 0]
                  0001ac80    00000004                    : BIOS.obj (.text:ti_sysbios_knl_Task_startup__E)
                  0001ac84    0000000c     --HOLE-- [fill = 0]
                  0001ac90    00000004                    : BIOS.obj (.text:ti_sysbios_timers_rti_Timer_getMaxTicks__E)
                  0001ac94    0000000c     --HOLE-- [fill = 0]
                  0001aca0    00000004                    : BIOS.obj (.text:xdc_runtime_SysStd_putch__E)
                  0001aca4    0000000c     --HOLE-- [fill = 0]
                  0001acb0    00000004                    : BIOS.obj (.text:xdc_runtime_SysStd_ready__E)
                  0001acb4    0000000c     --HOLE-- [fill = 0]
                  0001acc0    00000002                    : BIOS.obj (.text:ti_sysbios_BIOS_linkedWithIncorrectBootLibrary__E)
                  0001acc2    0000000e     --HOLE-- [fill = 0]
                  0001acd0    00000002                    : BIOS.obj (.text:ti_sysbios_gates_GateHwi_Instance_init__E)

.const     0    0001acd8    00000fcc     
                  0001acd8    000002b8     libmmwavelink_xwr16xx.aer4f : rl_sensor.oer4f (.const:$O1$$)
                  0001af90    000001ee     mmw_cli.oer4f (.const:.string)
                  0001b17e    00000101     rtsv7R4_T_le_v3D16_eabi.lib : ctype.obj (.const:.string:_ctypes_)
                  0001b27f    00000001     mmw_mss_per4ft.oer4ft (.const:xdc_runtime_Text_charTab__A)
                  0001b280    000000a0     libcli_xwr16xx.aer4f : cli_mmwave.oer4f (.const:.string)
                  0001b320    00000098     rtsv7R4_T_le_v3D16_eabi.lib : strtod.obj (.const:$O1$$)
                  0001b3b8    00000088     libmmwavelink_xwr16xx.aer4f : rl_driver.oer4f (.const:$O2$$)
                  0001b440    00000080     mmw_mss_per4ft.oer4ft (.const:ti_sysbios_family_arm_v7r_vim_Hwi_channelMap__A)
                  0001b4c0    00000058     mmw_mss_per4ft.oer4ft (.const:.string)
                  0001b518    00000044     mmw_mss_per4ft.oer4ft (.const:ti_sysbios_knl_Task_Object__PARAMS__C)
                  0001b55c    0000003c     libuart_xwr16xx.aer4f : UART.oer4f (.const:UART_defaultParams)
                  0001b598    0000003c     mmw_mss_per4ft.oer4ft (.const:xdc_runtime_LoggerBuf_Module__FXNS__C)
                  0001b5d4    00000038     libedma_xwr16xx.aer4f : edma_xwr1xxx.oer4f (.const:gEdmaHwAttrs)
                  0001b60c    00000030     mmw_mss_per4ft.oer4ft (.const:ti_sysbios_family_arm_v7r_vim_Hwi_Object__PARAMS__C)
                  0001b63c    00000030     mmw_mss_per4ft.oer4ft (.const:xdc_runtime_Startup_sfxnTab__A)
                  0001b66c    00000028     libdpm_xwr16xx.aer4f : dpm_msg.oer4f (.const:gDPMMessageFxnTable)
                  0001b694    00000028     mmw_mss_per4ft.oer4ft (.const:ti_sysbios_heaps_HeapMem_Module__FXNS__C)
                  0001b6bc    00000028     mmw_mss_per4ft.oer4ft (.const:xdc_runtime_LoggerBuf_Object__PARAMS__C)
                  0001b6e4    00000024     libmailbox_xwr16xx.aer4f : mailbox.oer4f (.const:Mailbox_defaultCfg)
                  0001b708    00000024     mmw_mss_per4ft.oer4ft (.const:ti_sysbios_gates_GateHwi_Module__FXNS__C)
                  0001b72c    00000024     mmw_mss_per4ft.oer4ft (.const:ti_sysbios_gates_GateMutex_Module__FXNS__C)
                  0001b750    00000024     mmw_mss_per4ft.oer4ft (.const:ti_sysbios_heaps_HeapMem_Object__PARAMS__C)
                  0001b774    00000024     mmw_mss_per4ft.oer4ft (.const:ti_sysbios_knl_Semaphore_Object__PARAMS__C)
                  0001b798    00000020     libcli_xwr16xx.aer4f : cli_mmwave.oer4f (.const:$P$T0$1)
                  0001b7b8    00000020     mmw_mss_per4ft.oer4ft (.const:ti_sysbios_family_arm_v7r_vim_Hwi_Object__DESC__C)
                  0001b7d8    00000020     mmw_mss_per4ft.oer4ft (.const:ti_sysbios_gates_GateHwi_Object__DESC__C)
                  0001b7f8    00000020     mmw_mss_per4ft.oer4ft (.const:ti_sysbios_gates_GateMutex_Object__DESC__C)
                  0001b818    00000020     mmw_mss_per4ft.oer4ft (.const:ti_sysbios_heaps_HeapMem_Object__DESC__C)
                  0001b838    00000020     mmw_mss_per4ft.oer4ft (.const:ti_sysbios_knl_Queue_Object__DESC__C)
                  0001b858    00000020     mmw_mss_per4ft.oer4ft (.const:ti_sysbios_knl_Semaphore_Object__DESC__C)
                  0001b878    00000020     mmw_mss_per4ft.oer4ft (.const:ti_sysbios_knl_Task_Object__DESC__C)
                  0001b898    00000020     mmw_mss_per4ft.oer4ft (.const:xdc_runtime_LoggerBuf_Object__DESC__C)
                  0001b8b8    00000018     mmw_mss_per4ft.oer4ft (.const:ti_sysbios_gates_GateHwi_Object__PARAMS__C)
                  0001b8d0    00000018     mmw_mss_per4ft.oer4ft (.const:ti_sysbios_gates_GateMutex_Object__PARAMS__C)
                  0001b8e8    00000018     mmw_mss_per4ft.oer4ft (.const:ti_sysbios_knl_Queue_Object__PARAMS__C)
                  0001b900    00000018     mmw_mss_per4ft.oer4ft (.const:ti_sysbios_knl_Task_hooks__A)
                  0001b918    00000018     mmw_mss_per4ft.oer4ft (.const:xdc_runtime_Startup_sfxnRts__A)
                  0001b930    00000014     libadcbuf_xwr16xx.aer4f : adcbuf_mmwave.oer4f (.const:gADCBufFxnTable)
                  0001b944    00000010                             : ADCBuf.oer4f (.const:ADCBuf_defaultParams)
                  0001b954    00000010     libedma_xwr16xx.aer4f : edma.oer4f (.const:EDMA_config$1)
                  0001b964    00000010     libadcbuf_xwr16xx.aer4f : adcbuf_xwr1xxx.oer4f (.const:gADCBufHwCfg)
                  0001b974    00000010     mmw_mss_per4ft.oer4ft (.const:ti_sysbios_family_arm_v7r_vim_Hwi_intReqEnaSet__A)
                  0001b984    00000010     mmw_mss_per4ft.oer4ft (.const:ti_sysbios_family_arm_v7r_vim_Hwi_wakeEnaSet__A)
                  0001b994    0000000c     mmw_mss_per4ft.oer4ft (.const:ti_sysbios_knl_Idle_funcList__A)
                  0001b9a0    00000008     mmw_mss_per4ft.oer4ft (.const:ti_sysbios_knl_Idle_funcList__C)
                  0001b9a8    00000008     mmw_mss_per4ft.oer4ft (.const:ti_sysbios_knl_Task_hooks__C)
                  0001b9b0    00000008     mmw_mss_per4ft.oer4ft (.const:xdc_runtime_Startup_firstFxns__A)
                  0001b9b8    00000008     mmw_mss_per4ft.oer4ft (.const:xdc_runtime_Startup_firstFxns__C)
                  0001b9c0    00000008     mmw_mss_per4ft.oer4ft (.const:xdc_runtime_Startup_lastFxns__C)
                  0001b9c8    00000004     libcli_xwr16xx.aer4f : cli.oer4f (.const:.string:$P$T0$1)
                  0001b9cc    00000004     mmw_mss_per4ft.oer4ft (.const:ti_sysbios_family_arm_TaskSupport_stackAlignment__C)
                  0001b9d0    00000004     mmw_mss_per4ft.oer4ft (.const:ti_sysbios_family_arm_exc_Exception_E_dataAbort__C)
                  0001b9d4    00000004     mmw_mss_per4ft.oer4ft (.const:ti_sysbios_family_arm_exc_Exception_E_prefetchAbort__C)
                  0001b9d8    00000004     mmw_mss_per4ft.oer4ft (.const:ti_sysbios_family_arm_exc_Exception_E_swi__C)
                  0001b9dc    00000004     mmw_mss_per4ft.oer4ft (.const:ti_sysbios_family_arm_exc_Exception_E_undefinedInstruction__C)
                  0001b9e0    00000004     mmw_mss_per4ft.oer4ft (.const:ti_sysbios_family_arm_exc_Exception_excHookFuncs__A)
                  0001b9e4    00000004     mmw_mss_per4ft.oer4ft (.const:ti_sysbios_family_arm_exc_Exception_excHookFuncs__C)
                  0001b9e8    00000004     mmw_mss_per4ft.oer4ft (.const:ti_sysbios_family_arm_v7a_Pmu_A_invalidCounterId__C)
                  0001b9ec    00000004     mmw_mss_per4ft.oer4ft (.const:ti_sysbios_family_arm_v7a_Pmu_Module__diagsEnabled__C)
                  0001b9f0    00000004     mmw_mss_per4ft.oer4ft (.const:ti_sysbios_family_arm_v7a_Pmu_Module__diagsIncluded__C)
                  0001b9f4    00000004     mmw_mss_per4ft.oer4ft (.const:ti_sysbios_family_arm_v7a_Pmu_Module__diagsMask__C)
                  0001b9f8    00000004     mmw_mss_per4ft.oer4ft (.const:ti_sysbios_family_arm_v7r_tms570_Core_E_mismatchedIds__C)
                  0001b9fc    00000004     mmw_mss_per4ft.oer4ft (.const:ti_sysbios_family_arm_v7r_tms570_Core_id__C)
                  0001ba00    00000004     mmw_mss_per4ft.oer4ft (.const:ti_sysbios_family_arm_v7r_vim_Hwi_A_badChannelId__C)
                  0001ba04    00000004     mmw_mss_per4ft.oer4ft (.const:ti_sysbios_family_arm_v7r_vim_Hwi_E_alreadyDefined__C)
                  0001ba08    00000004     mmw_mss_per4ft.oer4ft (.const:ti_sysbios_family_arm_v7r_vim_Hwi_E_badIntNum__C)
                  0001ba0c    00000004     mmw_mss_per4ft.oer4ft (.const:ti_sysbios_family_arm_v7r_vim_Hwi_E_phantomInterrupt__C)
                  0001ba10    00000004     mmw_mss_per4ft.oer4ft (.const:ti_sysbios_family_arm_v7r_vim_Hwi_E_undefined__C)
                  0001ba14    00000004     mmw_mss_per4ft.oer4ft (.const:ti_sysbios_family_arm_v7r_vim_Hwi_E_unsupportedMaskingOption__C)
                  0001ba18    00000004     mmw_mss_per4ft.oer4ft (.const:ti_sysbios_family_arm_v7r_vim_Hwi_LD_end__C)
                  0001ba1c    00000004     mmw_mss_per4ft.oer4ft (.const:ti_sysbios_family_arm_v7r_vim_Hwi_LM_begin__C)
                  0001ba20    00000004     mmw_mss_per4ft.oer4ft (.const:ti_sysbios_family_arm_v7r_vim_Hwi_Module__diagsEnabled__C)
                  0001ba24    00000004     mmw_mss_per4ft.oer4ft (.const:ti_sysbios_family_arm_v7r_vim_Hwi_Module__diagsIncluded__C)
                  0001ba28    00000004     mmw_mss_per4ft.oer4ft (.const:ti_sysbios_family_arm_v7r_vim_Hwi_Module__diagsMask__C)
                  0001ba2c    00000004     mmw_mss_per4ft.oer4ft (.const:ti_sysbios_family_arm_v7r_vim_Hwi_Module__loggerFxn1__C)
                  0001ba30    00000004     mmw_mss_per4ft.oer4ft (.const:ti_sysbios_family_arm_v7r_vim_Hwi_Module__loggerFxn8__C)
                  0001ba34    00000004     mmw_mss_per4ft.oer4ft (.const:ti_sysbios_family_arm_v7r_vim_Hwi_Module__loggerObj__C)
                  0001ba38    00000004     mmw_mss_per4ft.oer4ft (.const:ti_sysbios_family_arm_v7r_vim_Hwi_NUM_INTERRUPTS__C)
                  0001ba3c    00000004     mmw_mss_per4ft.oer4ft (.const:ti_sysbios_family_arm_v7r_vim_Hwi_channelMap__C)
                  0001ba40    00000004     mmw_mss_per4ft.oer4ft (.const:ti_sysbios_family_arm_v7r_vim_Hwi_intReqEnaSet__C)
                  0001ba44    00000004     mmw_mss_per4ft.oer4ft (.const:ti_sysbios_family_arm_v7r_vim_Hwi_phantomFunc__C)
                  0001ba48    00000004     mmw_mss_per4ft.oer4ft (.const:ti_sysbios_family_arm_v7r_vim_Hwi_taskDisable__C)
                  0001ba4c    00000004     mmw_mss_per4ft.oer4ft (.const:ti_sysbios_family_arm_v7r_vim_Hwi_taskRestoreHwi__C)
                  0001ba50    00000004     mmw_mss_per4ft.oer4ft (.const:ti_sysbios_family_arm_v7r_vim_Hwi_wakeEnaSet__C)
                  0001ba54    00000004     mmw_mss_per4ft.oer4ft (.const:ti_sysbios_gates_GateMutex_A_badContext__C)
                  0001ba58    00000004     mmw_mss_per4ft.oer4ft (.const:ti_sysbios_gates_GateMutex_Instance_State_sem__O)
                  0001ba5c    00000004     mmw_mss_per4ft.oer4ft (.const:ti_sysbios_gates_GateMutex_Module__diagsEnabled__C)
                  0001ba60    00000004     mmw_mss_per4ft.oer4ft (.const:ti_sysbios_gates_GateMutex_Module__diagsIncluded__C)
                  0001ba64    00000004     mmw_mss_per4ft.oer4ft (.const:ti_sysbios_gates_GateMutex_Module__diagsMask__C)
                  0001ba68    00000004     mmw_mss_per4ft.oer4ft (.const:ti_sysbios_hal_Hwi_E_stackOverflow__C)
                  0001ba6c    00000004     mmw_mss_per4ft.oer4ft (.const:ti_sysbios_heaps_HeapBuf_Instance_State_freeList__O)
                  0001ba70    00000004     mmw_mss_per4ft.oer4ft (.const:ti_sysbios_heaps_HeapBuf_Object__count__C)
                  0001ba74    00000004     mmw_mss_per4ft.oer4ft (.const:ti_sysbios_heaps_HeapBuf_numConstructedHeaps__C)
                  0001ba78    00000004     mmw_mss_per4ft.oer4ft (.const:ti_sysbios_heaps_HeapMem_A_align__C)
                  0001ba7c    00000004     mmw_mss_per4ft.oer4ft (.const:ti_sysbios_heaps_HeapMem_A_heapSize__C)
                  0001ba80    00000004     mmw_mss_per4ft.oer4ft (.const:ti_sysbios_heaps_HeapMem_A_invalidFree__C)
                  0001ba84    00000004     mmw_mss_per4ft.oer4ft (.const:ti_sysbios_heaps_HeapMem_A_zeroBlock__C)
                  0001ba88    00000004     mmw_mss_per4ft.oer4ft (.const:ti_sysbios_heaps_HeapMem_E_memory__C)
                  0001ba8c    00000004     mmw_mss_per4ft.oer4ft (.const:ti_sysbios_heaps_HeapMem_Module__diagsEnabled__C)
                  0001ba90    00000004     mmw_mss_per4ft.oer4ft (.const:ti_sysbios_heaps_HeapMem_Module__diagsIncluded__C)
                  0001ba94    00000004     mmw_mss_per4ft.oer4ft (.const:ti_sysbios_heaps_HeapMem_Module__diagsMask__C)
                  0001ba98    00000004     mmw_mss_per4ft.oer4ft (.const:ti_sysbios_heaps_HeapMem_Module__gateObj__C)
                  0001ba9c    00000004     mmw_mss_per4ft.oer4ft (.const:ti_sysbios_heaps_HeapMem_Object__count__C)
                  0001baa0    00000004     mmw_mss_per4ft.oer4ft (.const:ti_sysbios_heaps_HeapMem_reqAlign__C)
                  0001baa4    00000004     mmw_mss_per4ft.oer4ft (.const:ti_sysbios_knl_Clock_LM_begin__C)
                  0001baa8    00000004     mmw_mss_per4ft.oer4ft (.const:ti_sysbios_knl_Clock_LM_tick__C)
                  0001baac    00000004     mmw_mss_per4ft.oer4ft (.const:ti_sysbios_knl_Clock_LW_delayed__C)
                  0001bab0    00000004     mmw_mss_per4ft.oer4ft (.const:ti_sysbios_knl_Clock_Module_State_clockQ__O)
                  0001bab4    00000004     mmw_mss_per4ft.oer4ft (.const:ti_sysbios_knl_Clock_Module__diagsEnabled__C)
                  0001bab8    00000004     mmw_mss_per4ft.oer4ft (.const:ti_sysbios_knl_Clock_Module__diagsIncluded__C)
                  0001babc    00000004     mmw_mss_per4ft.oer4ft (.const:ti_sysbios_knl_Clock_Module__diagsMask__C)
                  0001bac0    00000004     mmw_mss_per4ft.oer4ft (.const:ti_sysbios_knl_Clock_Module__loggerFxn1__C)
                  0001bac4    00000004     mmw_mss_per4ft.oer4ft (.const:ti_sysbios_knl_Clock_Module__loggerFxn2__C)
                  0001bac8    00000004     mmw_mss_per4ft.oer4ft (.const:ti_sysbios_knl_Clock_Module__loggerObj__C)
                  0001bacc    00000004     mmw_mss_per4ft.oer4ft (.const:ti_sysbios_knl_Semaphore_A_badContext__C)
                  0001bad0    00000004     mmw_mss_per4ft.oer4ft (.const:ti_sysbios_knl_Semaphore_A_noEvents__C)
                  0001bad4    00000004     mmw_mss_per4ft.oer4ft (.const:ti_sysbios_knl_Semaphore_A_overflow__C)
                  0001bad8    00000004     mmw_mss_per4ft.oer4ft (.const:ti_sysbios_knl_Semaphore_A_pendTaskDisabled__C)
                  0001badc    00000004     mmw_mss_per4ft.oer4ft (.const:ti_sysbios_knl_Semaphore_Instance_State_pendQ__O)
                  0001bae0    00000004     mmw_mss_per4ft.oer4ft (.const:ti_sysbios_knl_Semaphore_LM_pend__C)
                  0001bae4    00000004     mmw_mss_per4ft.oer4ft (.const:ti_sysbios_knl_Semaphore_LM_post__C)
                  0001bae8    00000004     mmw_mss_per4ft.oer4ft (.const:ti_sysbios_knl_Semaphore_Module__diagsEnabled__C)
                  0001baec    00000004     mmw_mss_per4ft.oer4ft (.const:ti_sysbios_knl_Semaphore_Module__diagsIncluded__C)
                  0001baf0    00000004     mmw_mss_per4ft.oer4ft (.const:ti_sysbios_knl_Semaphore_Module__diagsMask__C)
                  0001baf4    00000004     mmw_mss_per4ft.oer4ft (.const:ti_sysbios_knl_Semaphore_Module__loggerFxn2__C)
                  0001baf8    00000004     mmw_mss_per4ft.oer4ft (.const:ti_sysbios_knl_Semaphore_Module__loggerFxn4__C)
                  0001bafc    00000004     mmw_mss_per4ft.oer4ft (.const:ti_sysbios_knl_Semaphore_Module__loggerObj__C)
                  0001bb00    00000004     mmw_mss_per4ft.oer4ft (.const:ti_sysbios_knl_Task_A_badPriority__C)
                  0001bb04    00000004     mmw_mss_per4ft.oer4ft (.const:ti_sysbios_knl_Task_A_badTaskState__C)
                  0001bb08    00000004     mmw_mss_per4ft.oer4ft (.const:ti_sysbios_knl_Task_A_badThreadType__C)
                  0001bb0c    00000004     mmw_mss_per4ft.oer4ft (.const:ti_sysbios_knl_Task_A_badTimeout__C)
                  0001bb10    00000004     mmw_mss_per4ft.oer4ft (.const:ti_sysbios_knl_Task_A_noPendElem__C)
                  0001bb14    00000004     mmw_mss_per4ft.oer4ft (.const:ti_sysbios_knl_Task_A_sleepTaskDisabled__C)
                  0001bb18    00000004     mmw_mss_per4ft.oer4ft (.const:ti_sysbios_knl_Task_E_spOutOfBounds__C)
                  0001bb1c    00000004     mmw_mss_per4ft.oer4ft (.const:ti_sysbios_knl_Task_E_stackOverflow__C)
                  0001bb20    00000004     mmw_mss_per4ft.oer4ft (.const:ti_sysbios_knl_Task_LD_block__C)
                  0001bb24    00000004     mmw_mss_per4ft.oer4ft (.const:ti_sysbios_knl_Task_LD_exit__C)
                  0001bb28    00000004     mmw_mss_per4ft.oer4ft (.const:ti_sysbios_knl_Task_LD_ready__C)
                  0001bb2c    00000004     mmw_mss_per4ft.oer4ft (.const:ti_sysbios_knl_Task_LM_sleep__C)
                  0001bb30    00000004     mmw_mss_per4ft.oer4ft (.const:ti_sysbios_knl_Task_LM_switch__C)
                  0001bb34    00000004     mmw_mss_per4ft.oer4ft (.const:ti_sysbios_knl_Task_Module_State_inactiveQ__O)
                  0001bb38    00000004     mmw_mss_per4ft.oer4ft (.const:ti_sysbios_knl_Task_Module__diagsEnabled__C)
                  0001bb3c    00000004     mmw_mss_per4ft.oer4ft (.const:ti_sysbios_knl_Task_Module__diagsIncluded__C)
                  0001bb40    00000004     mmw_mss_per4ft.oer4ft (.const:ti_sysbios_knl_Task_Module__diagsMask__C)
                  0001bb44    00000004     mmw_mss_per4ft.oer4ft (.const:ti_sysbios_knl_Task_Module__loggerFxn2__C)
                  0001bb48    00000004     mmw_mss_per4ft.oer4ft (.const:ti_sysbios_knl_Task_Module__loggerFxn4__C)
                  0001bb4c    00000004     mmw_mss_per4ft.oer4ft (.const:ti_sysbios_knl_Task_Module__loggerObj__C)
                  0001bb50    00000004     mmw_mss_per4ft.oer4ft (.const:ti_sysbios_knl_Task_Object__count__C)
                  0001bb54    00000004     mmw_mss_per4ft.oer4ft (.const:ti_sysbios_knl_Task_Object__heap__C)
                  0001bb58    00000004     mmw_mss_per4ft.oer4ft (.const:ti_sysbios_knl_Task_allBlockedFunc__C)
                  0001bb5c    00000004     mmw_mss_per4ft.oer4ft (.const:ti_sysbios_knl_Task_defaultStackHeap__C)
                  0001bb60    00000004     mmw_mss_per4ft.oer4ft (.const:ti_sysbios_knl_Task_defaultStackSize__C)
                  0001bb64    00000004     mmw_mss_per4ft.oer4ft (.const:ti_sysbios_knl_Task_numConstructedTasks__C)
                  0001bb68    00000004     mmw_mss_per4ft.oer4ft (.const:ti_sysbios_timers_rti_Timer_E_cannotSupport__C)
                  0001bb6c    00000004     mmw_mss_per4ft.oer4ft (.const:ti_sysbios_timers_rti_Timer_Module__diagsEnabled__C)
                  0001bb70    00000004     mmw_mss_per4ft.oer4ft (.const:ti_sysbios_timers_rti_Timer_Module__diagsIncluded__C)
                  0001bb74    00000004     mmw_mss_per4ft.oer4ft (.const:ti_sysbios_timers_rti_Timer_Module__diagsMask__C)
                  0001bb78    00000004     mmw_mss_per4ft.oer4ft (.const:ti_sysbios_timers_rti_Timer_numTimerDevices__C)
                  0001bb7c    00000004     mmw_mss_per4ft.oer4ft (.const:ti_sysbios_timers_rti_Timer_startupNeeded__C)
                  0001bb80    00000004     mmw_mss_per4ft.oer4ft (.const:ti_sysbios_utils_Load_LS_cpuLoad__C)
                  0001bb84    00000004     mmw_mss_per4ft.oer4ft (.const:ti_sysbios_utils_Load_LS_taskLoad__C)
                  0001bb88    00000004     mmw_mss_per4ft.oer4ft (.const:ti_sysbios_utils_Load_Module_State_taskList__O)
                  0001bb8c    00000004     mmw_mss_per4ft.oer4ft (.const:ti_sysbios_utils_Load_Module__diagsEnabled__C)
                  0001bb90    00000004     mmw_mss_per4ft.oer4ft (.const:ti_sysbios_utils_Load_Module__diagsIncluded__C)
                  0001bb94    00000004     mmw_mss_per4ft.oer4ft (.const:ti_sysbios_utils_Load_Module__diagsMask__C)
                  0001bb98    00000004     mmw_mss_per4ft.oer4ft (.const:ti_sysbios_utils_Load_Module__loggerFxn1__C)
                  0001bb9c    00000004     mmw_mss_per4ft.oer4ft (.const:ti_sysbios_utils_Load_Module__loggerFxn4__C)
                  0001bba0    00000004     mmw_mss_per4ft.oer4ft (.const:ti_sysbios_utils_Load_Module__loggerObj__C)
                  0001bba4    00000004     mmw_mss_per4ft.oer4ft (.const:ti_sysbios_utils_Load_postUpdate__C)
                  0001bba8    00000004     mmw_mss_per4ft.oer4ft (.const:ti_sysbios_utils_Load_windowInMs__C)
                  0001bbac    00000004     mmw_mss_per4ft.oer4ft (.const:xdc_runtime_Assert_E_assertFailed__C)
                  0001bbb0    00000004     mmw_mss_per4ft.oer4ft (.const:xdc_runtime_Core_A_initializedParams__C)
                  0001bbb4    00000004     mmw_mss_per4ft.oer4ft (.const:xdc_runtime_Core_Module__diagsEnabled__C)
                  0001bbb8    00000004     mmw_mss_per4ft.oer4ft (.const:xdc_runtime_Core_Module__diagsIncluded__C)
                  0001bbbc    00000004     mmw_mss_per4ft.oer4ft (.const:xdc_runtime_Core_Module__diagsMask__C)
                  0001bbc0    00000004     mmw_mss_per4ft.oer4ft (.const:xdc_runtime_Error_E_memory__C)
                  0001bbc4    00000004     mmw_mss_per4ft.oer4ft (.const:xdc_runtime_Error_Module__diagsEnabled__C)
                  0001bbc8    00000004     mmw_mss_per4ft.oer4ft (.const:xdc_runtime_Error_Module__diagsIncluded__C)
                  0001bbcc    00000004     mmw_mss_per4ft.oer4ft (.const:xdc_runtime_Error_Module__diagsMask__C)
                  0001bbd0    00000004     mmw_mss_per4ft.oer4ft (.const:xdc_runtime_Error_Module__loggerFxn8__C)
                  0001bbd4    00000004     mmw_mss_per4ft.oer4ft (.const:xdc_runtime_Error_Module__loggerObj__C)
                  0001bbd8    00000004     mmw_mss_per4ft.oer4ft (.const:xdc_runtime_Error_policyFxn__C)
                  0001bbdc    00000004     mmw_mss_per4ft.oer4ft (.const:xdc_runtime_Error_policy__C)
                  0001bbe0    00000004     mmw_mss_per4ft.oer4ft (.const:xdc_runtime_Error_raiseHook__C)
                  0001bbe4    00000004     mmw_mss_per4ft.oer4ft (.const:xdc_runtime_IFilterLogger_Interface__BASE__C)
                  0001bbe8    00000004     mmw_mss_per4ft.oer4ft (.const:xdc_runtime_IGateProvider_Interface__BASE__C)
                  0001bbec    00000004     mmw_mss_per4ft.oer4ft (.const:xdc_runtime_IHeap_Interface__BASE__C)
                  0001bbf0    00000004     mmw_mss_per4ft.oer4ft (.const:xdc_runtime_ILogger_Interface__BASE__C)
                  0001bbf4    00000004     mmw_mss_per4ft.oer4ft (.const:xdc_runtime_IModule_Interface__BASE__C)
                  0001bbf8    00000004     mmw_mss_per4ft.oer4ft (.const:xdc_runtime_Log_L_error__C)
                  0001bbfc    00000004     mmw_mss_per4ft.oer4ft (.const:xdc_runtime_LoggerBuf_E_badLevel__C)
                  0001bc00    00000004     mmw_mss_per4ft.oer4ft (.const:xdc_runtime_LoggerBuf_Module__gateObj__C)
                  0001bc04    00000004     mmw_mss_per4ft.oer4ft (.const:xdc_runtime_LoggerBuf_Object__count__C)
                  0001bc08    00000004     mmw_mss_per4ft.oer4ft (.const:xdc_runtime_LoggerBuf_statusLogger__C)
                  0001bc0c    00000004     mmw_mss_per4ft.oer4ft (.const:xdc_runtime_Main_Module__diagsEnabled__C)
                  0001bc10    00000004     mmw_mss_per4ft.oer4ft (.const:xdc_runtime_Main_Module__diagsIncluded__C)
                  0001bc14    00000004     mmw_mss_per4ft.oer4ft (.const:xdc_runtime_Main_Module__diagsMask__C)
                  0001bc18    00000004     mmw_mss_per4ft.oer4ft (.const:xdc_runtime_Main_Module__loggerFxn1__C)
                  0001bc1c    00000004     mmw_mss_per4ft.oer4ft (.const:xdc_runtime_Main_Module__loggerFxn2__C)
                  0001bc20    00000004     mmw_mss_per4ft.oer4ft (.const:xdc_runtime_Main_Module__loggerFxn4__C)
                  0001bc24    00000004     mmw_mss_per4ft.oer4ft (.const:xdc_runtime_Main_Module__loggerObj__C)
                  0001bc28    00000004     mmw_mss_per4ft.oer4ft (.const:xdc_runtime_Memory_defaultHeapInstance__C)
                  0001bc2c    00000004     mmw_mss_per4ft.oer4ft (.const:xdc_runtime_Startup_execImpl__C)
                  0001bc30    00000004     mmw_mss_per4ft.oer4ft (.const:xdc_runtime_Startup_maxPasses__C)
                  0001bc34    00000004     mmw_mss_per4ft.oer4ft (.const:xdc_runtime_Startup_sfxnRts__C)
                  0001bc38    00000004     mmw_mss_per4ft.oer4ft (.const:xdc_runtime_Startup_sfxnTab__C)
                  0001bc3c    00000004     mmw_mss_per4ft.oer4ft (.const:xdc_runtime_System_Module__gateObj__C)
                  0001bc40    00000004     mmw_mss_per4ft.oer4ft (.const:xdc_runtime_System_abortFxn__C)
                  0001bc44    00000004     mmw_mss_per4ft.oer4ft (.const:xdc_runtime_System_exitFxn__C)
                  0001bc48    00000004     mmw_mss_per4ft.oer4ft (.const:xdc_runtime_System_extendFxn__C)
                  0001bc4c    00000004     mmw_mss_per4ft.oer4ft (.const:xdc_runtime_System_maxAtexitHandlers__C)
                  0001bc50    00000004     mmw_mss_per4ft.oer4ft (.const:xdc_runtime_Text_charTab__C)
                  0001bc54    00000004     mmw_mss_per4ft.oer4ft (.const:xdc_runtime_Text_nameEmpty__C)
                  0001bc58    00000004     mmw_mss_per4ft.oer4ft (.const:xdc_runtime_Text_nameStatic__C)
                  0001bc5c    00000004     mmw_mss_per4ft.oer4ft (.const:xdc_runtime_Text_nameUnknown__C)
                  0001bc60    00000004     mmw_mss_per4ft.oer4ft (.const:xdc_runtime_Text_visitRopeFxn__C)
                  0001bc64    00000002     mmw_mss_per4ft.oer4ft (.const:ti_sysbios_family_arm_exc_Exception_Module__id__C)
                  0001bc66    00000002     mmw_mss_per4ft.oer4ft (.const:ti_sysbios_family_arm_v7a_Pmu_Module__id__C)
                  0001bc68    00000002     mmw_mss_per4ft.oer4ft (.const:ti_sysbios_family_arm_v7r_tms570_Core_Module__id__C)
                  0001bc6a    00000002     mmw_mss_per4ft.oer4ft (.const:ti_sysbios_family_arm_v7r_vim_Hwi_Module__id__C)
                  0001bc6c    00000002     mmw_mss_per4ft.oer4ft (.const:ti_sysbios_family_arm_v7r_vim_Hwi_Module__loggerDefined__C)
                  0001bc6e    00000002     mmw_mss_per4ft.oer4ft (.const:ti_sysbios_gates_GateMutex_Module__id__C)
                  0001bc70    00000002     mmw_mss_per4ft.oer4ft (.const:ti_sysbios_hal_Hwi_Module__id__C)
                  0001bc72    00000002     mmw_mss_per4ft.oer4ft (.const:ti_sysbios_heaps_HeapMem_Module__id__C)
                  0001bc74    00000002     mmw_mss_per4ft.oer4ft (.const:ti_sysbios_knl_Clock_Module__id__C)
                  0001bc76    00000002     mmw_mss_per4ft.oer4ft (.const:ti_sysbios_knl_Clock_Module__loggerDefined__C)
                  0001bc78    00000002     mmw_mss_per4ft.oer4ft (.const:ti_sysbios_knl_Semaphore_Module__id__C)
                  0001bc7a    00000002     mmw_mss_per4ft.oer4ft (.const:ti_sysbios_knl_Semaphore_Module__loggerDefined__C)
                  0001bc7c    00000002     mmw_mss_per4ft.oer4ft (.const:ti_sysbios_knl_Task_Module__id__C)
                  0001bc7e    00000002     mmw_mss_per4ft.oer4ft (.const:ti_sysbios_knl_Task_Module__loggerDefined__C)
                  0001bc80    00000002     mmw_mss_per4ft.oer4ft (.const:ti_sysbios_timers_rti_Timer_Module__id__C)
                  0001bc82    00000002     mmw_mss_per4ft.oer4ft (.const:ti_sysbios_timers_rti_Timer_continueOnSuspend__C)
                  0001bc84    00000002     mmw_mss_per4ft.oer4ft (.const:ti_sysbios_utils_Load_Module__id__C)
                  0001bc86    00000002     mmw_mss_per4ft.oer4ft (.const:ti_sysbios_utils_Load_Module__loggerDefined__C)
                  0001bc88    00000002     mmw_mss_per4ft.oer4ft (.const:ti_sysbios_utils_Load_autoAddTasks__C)
                  0001bc8a    00000002     mmw_mss_per4ft.oer4ft (.const:ti_sysbios_utils_Load_updateInIdle__C)
                  0001bc8c    00000002     mmw_mss_per4ft.oer4ft (.const:xdc_runtime_Core_Module__id__C)
                  0001bc8e    00000002     mmw_mss_per4ft.oer4ft (.const:xdc_runtime_Error_Module__loggerDefined__C)
                  0001bc90    00000002     mmw_mss_per4ft.oer4ft (.const:xdc_runtime_Error_maxDepth__C)
                  0001bc92    00000002     mmw_mss_per4ft.oer4ft (.const:xdc_runtime_LoggerBuf_Module__id__C)
                  0001bc94    00000002     mmw_mss_per4ft.oer4ft (.const:xdc_runtime_LoggerBuf_filterByLevel__C)
                  0001bc96    00000002     mmw_mss_per4ft.oer4ft (.const:xdc_runtime_Main_Module__id__C)
                  0001bc98    00000002     mmw_mss_per4ft.oer4ft (.const:xdc_runtime_Main_Module__loggerDefined__C)
                  0001bc9a    00000002     mmw_mss_per4ft.oer4ft (.const:xdc_runtime_Memory_Module__id__C)
                  0001bc9c    00000002     mmw_mss_per4ft.oer4ft (.const:xdc_runtime_Text_charCnt__C)
                  0001bc9e    00000002     mmw_mss_per4ft.oer4ft (.const:xdc_runtime_Text_isLoaded__C)
                  0001bca0    00000002     mmw_mss_per4ft.oer4ft (.const:xdc_runtime_Text_registryModsLastId__C)
                  0001bca2    00000002     mmw_mss_per4ft.oer4ft (.const:xdc_runtime_Text_unnamedModsLastId__C)

.cinit     0    0001bca8    000004a0     
                  0001bca8    00000459     (.cinit..data.load) [load image, compression = lzss]
                  0001c101    00000003     --HOLE-- [fill = 0]
                  0001c104    0000000c     (__TI_handler_table)
                  0001c110    00000008     (.cinit..bss.load) [load image, compression = zero_init]
                  0001c118    00000008     (.cinit..myFiqStack.load) [load image, compression = zero_init]
                  0001c120    00000008     (.cinit.systemHeap.load) [load image, compression = zero_init]
                  0001c128    00000020     (__TI_cinit_table)

systemHeap 
*          0    08000000    00008000     UNINITIALIZED
                  08000000    00008000     mmw_mss_per4ft.oer4ft (systemHeap)

.bss       0    08008000    00003aa8     UNINITIALIZED
                  08008000    00001900     (.common:xdc_runtime_LoggerBuf_Instance_State_0_entryArr__A)
                  08009900    00001000     (.common:ti_sysbios_family_arm_exc_Exception_Module_State_0_excStack_0__A)
                  0800a900    00000778     (.common:gMmwMssMCB)
                  0800b078    00000320     mmw_mss_per4ft.oer4ft (.bss:taskStackSection)
                  0800b398    000001a8     (.common:gCLI)
                  0800b540    00000194     (.common:gGPIOMCB)
                  0800b6d4    00000120     rtsv7R4_T_le_v3D16_eabi.lib : trgmsg.obj (.bss:_CIOBUF_)
                  0800b7f4    00000100     (.common:gMMWave_MCB)
                  0800b8f4    000000a0     (.common:__TI_tmpnams)
                  0800b994    00000004     (.common:ti_sysbios_knl_Task_Instance_State_0_hookEnv__A)
                  0800b998    00000090     (.common:gHSIHeaderMCB)
                  0800ba28    00000070     (.common:gEsmMCB)
                  0800ba98    00000008     (.common:gMMWave_DualcoreMCB)
                  0800baa0    00000008     (.common:parmbuf)

.data      0    0800baa8    0000167c     UNINITIALIZED
                  0800baa8    000004ec     libedma_xwr16xx.aer4f : edma.oer4f (.data:$O1$$)
                  0800bf94    000003e8     libmmwavelink_xwr16xx.aer4f : rl_driver.oer4f (.data:$O1$$)
                  0800c37c    00000004     libadcbuf_xwr16xx.aer4f : ADCBuf.oer4f (.data)
                  0800c380    00000248     libcli_xwr16xx.aer4f : cli_mmwave.oer4f (.data:$O1$$)
                  0800c5c8    00000200     mmw_mss_per4ft.oer4ft (.data:ti_sysbios_family_arm_v7r_vim_Hwi_Module_State_0_dispatchTable__A)
                  0800c7c8    000000f0     rtsv7R4_T_le_v3D16_eabi.lib : defs.obj (.data:_ftable)
                  0800c8b8    00000098     mmw_mss_per4ft.oer4ft (.data:ti_sysbios_utils_Load_Module__state__V)
                  0800c950    00000080     mmw_mss_per4ft.oer4ft (.data:ti_sysbios_knl_Task_Module_State_0_readyQ__A)
                  0800c9d0    00000078     rtsv7R4_T_le_v3D16_eabi.lib : write.obj (.data:_device)
                  0800ca48    00000078     libcbuff_xwr16xx.aer4f : cbuff_xwr16xx.oer4f (.data:gCBUFFHwAttribute)
                  0800cac0    0000005c     mmw_mss_per4ft.oer4ft (.data:ti_sysbios_knl_Task_Object__table__V)
                  0800cb1c    00000058     libuart_xwr16xx.aer4f : uart_xwr16xx.oer4f (.data:gUartSciHwCfg)
                  0800cb74    00000050     rtsv7R4_T_le_v3D16_eabi.lib : write.obj (.data:_stream)
                  0800cbc4    00000050     libmailbox_xwr16xx.aer4f : mailbox.oer4f (.data:gMailboxMCB)
                  0800cc14    00000048     mmw_mss_per4ft.oer4ft (.data:ti_sysbios_knl_Task_Module__state__V)
                  0800cc5c    00000040     libsoc_xwr16xx.aer4f : soc_xwr16xx.oer4f (.data:SOC_TranslateAddr_LUT)
                  0800cc9c    00000040     mmw_mss_per4ft.oer4ft (.data:ti_sysbios_gates_GateMutex_Object__table__V)
                  0800ccdc    0000003c     mmw_mss_per4ft.oer4ft (.data:ti_sysbios_timers_rti_Timer_Object__table__V)
                  0800cd18    00000038     libcbuff_xwr16xx.aer4f : cbuff_xwr16xx.oer4f (.data:gCBUFFInterfaceFxn)
                  0800cd50    00000034     mmw_mss_per4ft.oer4ft (.data:ti_sysbios_family_arm_v7r_vim_Hwi_Module__state__V)
                  0800cd84    0000002c     mmw_mss_per4ft.oer4ft (.data:ti_sysbios_family_arm_v7r_vim_Hwi_Object__table__V)
                  0800cdb0    0000002c     mmw_mss_per4ft.oer4ft (.data:ti_sysbios_knl_Clock_Module__state__V)
                  0800cddc    00000028     libuart_xwr16xx.aer4f : uartsci.oer4f (.data:gUartSciFxnTable)
                  0800ce04    00000024                           : uart_xwr16xx.oer4f (.data:UART_config)
                  0800ce28    00000024     mmw_mss_per4ft.oer4ft (.data:ti_sysbios_BIOS_Module__state__V)
                  0800ce4c    00000024     mmw_mss_per4ft.oer4ft (.data:xdc_runtime_LoggerBuf_Object__table__V)
                  0800ce70    00000020     mmw_mss_per4ft.oer4ft (.data:ti_sysbios_knl_Clock_Object__table__V)
                  0800ce90    00000020     mmw_mss_per4ft.oer4ft (.data:xdc_runtime_Error_IgnoreBlock)
                  0800ceb0    00000020     mmw_mss_per4ft.oer4ft (.data:xdc_runtime_System_Module_State_0_atexitHandlers__A)
                  0800ced0    0000001c     mmw_mss_per4ft.oer4ft (.data:ti_sysbios_utils_Load_Module_State_0_taskEnv__A)
                  0800ceec    00000018     libadcbuf_xwr16xx.aer4f : adcbuf_xwr1xxx.oer4f (.data:ADCBuf_config)
                  0800cf04    00000018     libcbuff_xwr16xx.aer4f : cbuff_xwr16xx.oer4f (.data:gInterleavedTransferFxn)
                  0800cf1c    00000018     libmailbox_xwr16xx.aer4f : mailbox_xwr16xx.oer4f (.data:gMailboxMssBssHwCfg)
                  0800cf34    00000018                              : mailbox_xwr16xx.oer4f (.data:gMailboxMssDssHwCfg)
                  0800cf4c    00000018     libcbuff_xwr16xx.aer4f : cbuff_xwr16xx.oer4f (.data:gMultipleChirpNonInterleavedTransferFxn)
                  0800cf64    00000018                            : cbuff_xwr16xx.oer4f (.data:gNonInterleavedTransferFxn)
                  0800cf7c    00000018     mmw_mss_per4ft.oer4ft (.data:ti_sysbios_heaps_HeapMem_Object__table__V)
                  0800cf94    00000018     mmw_mss_per4ft.oer4ft (.data:ti_sysbios_timers_rti_Timer_Module_State_0_device__A)
                  0800cfac    00000014     libdpm_xwr16xx.aer4f : dpm_mailbox.oer4f (.data:gDPMRemoteTable)
                  0800cfc0    00000014     libsoc_xwr16xx.aer4f : soc_xwr16xx_mss.oer4f (.data:gSOCHwAttrib)
                  0800cfd4    00000014     mmw_mss_per4ft.oer4ft (.data:ti_sysbios_family_arm_exc_Exception_Module__state__V)
                  0800cfe8    00000010     rtsv7R4_T_le_v3D16_eabi.lib : defs.obj (.data)
                  0800cff8    00000010     mmw_mss_per4ft.oer4ft (.data:ti_sysbios_timers_rti_Timer_Module_State_0_intFreqs__A)
                  0800d008    00000010     mmw_mss_per4ft.oer4ft (.data:ti_sysbios_timers_rti_Timer_Module__state__V)
                  0800d018    0000000c     rtsv7R4_T_le_v3D16_eabi.lib : exit.obj (.data:$O1$$)
                  0800d024    0000000c     libesm_xwr16xx.aer4f : esm_xwr1xxx.oer4f (.data:gESMHwCfgAttrs)
                  0800d030    0000000c     mmw_mss_per4ft.oer4ft (.data:ti_sysbios_family_arm_v7a_Pmu_Module__state__V)
                  0800d03c    0000000c     mmw_mss_per4ft.oer4ft (.data:ti_sysbios_knl_Task_Module__root__V)
                  0800d048    00000008     rtsv7R4_T_le_v3D16_eabi.lib : _lock.obj (.data:$O1$$)
                  0800d050    00000008     mmwdemo_rfparser.oer4f (.data:MmwDemo_RFParserHwCfg)
                  0800d058    00000008     libdpm_xwr16xx.aer4f : dpm_xwr16xx.oer4f (.data:gDPMHwAttrib)
                  0800d060    00000008     libgpio_xwr16xx.aer4f : gpio_xwr16xx.oer4f (.data:gGPIOHwAtrrib)
                  0800d068    00000008     mmw_mss_per4ft.oer4ft (.data:ti_sysbios_family_arm_v7r_vim_Hwi_Module__root__V)
                  0800d070    00000008     mmw_mss_per4ft.oer4ft (.data:ti_sysbios_gates_GateHwi_Module__root__V)
                  0800d078    00000008     mmw_mss_per4ft.oer4ft (.data:ti_sysbios_gates_GateMutex_Module__root__V)
                  0800d080    00000008     mmw_mss_per4ft.oer4ft (.data:ti_sysbios_hal_Hwi_Object__table__V)
                  0800d088    00000008     mmw_mss_per4ft.oer4ft (.data:ti_sysbios_heaps_HeapMem_Module__root__V)
                  0800d090    00000008     mmw_mss_per4ft.oer4ft (.data:ti_sysbios_knl_Queue_Module__root__V)
                  0800d098    00000008     mmw_mss_per4ft.oer4ft (.data:ti_sysbios_knl_Semaphore_Module__root__V)
                  0800d0a0    00000008     mmw_mss_per4ft.oer4ft (.data:ti_sysbios_timers_rti_Timer_Module_State_0_handles__A)
                  0800d0a8    00000008     mmw_mss_per4ft.oer4ft (.data:xdc_runtime_LoggerBuf_Module__root__V)
                  0800d0b0    00000008     mmw_mss_per4ft.oer4ft (.data:xdc_runtime_Registry_Module__state__V)
                  0800d0b8    00000008     mmw_mss_per4ft.oer4ft (.data:xdc_runtime_Startup_Module__state__V)
                  0800d0c0    00000008     mmw_mss_per4ft.oer4ft (.data:xdc_runtime_System_Module__state__V)
                  0800d0c8    00000006     mmw_mss_per4ft.oer4ft (.data:xdc_runtime_LoggerBuf_Module__state__V)
                  0800d0ce    00000002     mmw_mss_per4ft.oer4ft (.data:ti_sysbios_family_arm_exc_Exception_Module_State_0_excActive__A)
                  0800d0d0    00000004     libcrc_xwr16xx.aer4f : crc_xwr16xx.oer4f (.data)
                  0800d0d4    00000004     libdpm_xwr16xx.aer4f : dpm_mailbox.oer4f (.data)
                  0800d0d8    00000004     libedma_xwr16xx.aer4f : edma_low_level.oer4f (.data)
                  0800d0dc    00000004     libpinmux_xwr16xx.aer4f : pinmux_xwr1xxx.oer4f (.data)
                  0800d0e0    00000004     libuart_xwr16xx.aer4f : UART.oer4f (.data)
                  0800d0e4    00000004     rtsv7R4_T_le_v3D16_eabi.lib : errno.obj (.data)
                  0800d0e8    00000004                                 : fopen.obj (.data)
                  0800d0ec    00000004                                 : open.obj (.data)
                  0800d0f0    00000004                                 : stkdepth_vars.obj (.data)
                  0800d0f4    00000004                                 : strtok.obj (.data)
                  0800d0f8    00000004     mmw_mss_per4ft.oer4ft (.data:ti_sysbios_family_arm_a15_TimestampProvider_Module__state__V)
                  0800d0fc    00000004     mmw_mss_per4ft.oer4ft (.data:ti_sysbios_family_arm_exc_Exception_Module_State_0_excContext__A)
                  0800d100    00000004     mmw_mss_per4ft.oer4ft (.data:ti_sysbios_family_arm_exc_Exception_Module_State_0_excStackBuffers__A)
                  0800d104    00000004     mmw_mss_per4ft.oer4ft (.data:ti_sysbios_family_arm_exc_Exception_Module_State_0_excStack__A)
                  0800d108    00000004     mmw_mss_per4ft.oer4ft (.data:ti_sysbios_gates_GateHwi_Object__table__V)
                  0800d10c    00000004     mmw_mss_per4ft.oer4ft (.data:ti_sysbios_heaps_HeapBuf_Module__state__V)
                  0800d110    00000004     mmw_mss_per4ft.oer4ft (.data:ti_sysbios_knl_Task_Module_State_0_idleTask__A)
                  0800d114    00000004     mmw_mss_per4ft.oer4ft (.data:ti_sysbios_utils_Load_Module_State_0_runningTask__A)
                  0800d118    00000004     mmw_mss_per4ft.oer4ft (.data:ti_sysbios_utils_Load_Module_State_0_taskStartTime__A)
                  0800d11c    00000004     mmw_mss_per4ft.oer4ft (.data:xdc_runtime_Memory_Module__state__V)
                  0800d120    00000002     mmw_mss_per4ft.oer4ft (.data:xdc_runtime_Error_Module__state__V)
                  0800d122    00000002     mmw_mss_per4ft.oer4ft (.data:xdc_runtime_Main_Module__root__V)

.stack     0    0800d928    00000800     UNINITIALIZED
                  0800d928    00000800     --HOLE--

MODULE SUMMARY

       Module                          code     ro data   rw data
       ------                          ----     -------   -------
    /home/gtbldadm/nightlybuilds/mmwave_sdk/ti/demo/xwr16xx/mmw/mmw_configPkg_mss_xwr16xx/package/cfg/
       mmw_mss_per4ft.oer4ft           1862     1913      47804  
    +--+-------------------------------+--------+---------+---------+
       Total:                          1862     1913      47804  
                                                                 
    obj_xwr16xx/
       mss_main.oer4f                  13492    0         1912   
       mmw_cli.oer4f                   5693     494       0      
       mmw_lvds_stream.oer4f           3180     0         0      
       mmwdemo_rfparser.oer4f          1352     0         8      
       mmwdemo_adcconfig.oer4f         216      0         0      
       mmwdemo_monitor.oer4f           130      0         0      
    +--+-------------------------------+--------+---------+---------+
       Total:                          24063    494       1920   
                                                                 
    /home/gtbldadm/nightlybuilds/mmwave_sdk/scripts/jenkins/../../ti/control/dpm/lib/libdpm_xwr16xx.aer4f
       dpm_msg.oer4f                   1134     40        0      
       dpm_core.oer4f                  1100     0         0      
       dpm_mailbox.oer4f               362      0         24     
       dpm_pipe.oer4f                  312      0         0      
       dpm_listlib.oer4f               86       0         0      
       dpm_xwr16xx.oer4f               0        0         8      
    +--+-------------------------------+--------+---------+---------+
       Total:                          2994     40        32     
                                                                 
    /home/gtbldadm/nightlybuilds/mmwave_sdk/scripts/jenkins/../../ti/control/mmwave/lib/libmmwave_xwr16xx.aer4f
       mmwave_link.oer4f               2544     0         0      
       mmwave_dualcore.oer4f           2106     0         8      
       mmwave_fullcfg.oer4f            2002     0         0      
       mmwave.oer4f                    1016     0         256    
       mmwave_osal.oer4f               200      0         0      
       mmwave_listlib.oer4f            142      0         0      
    +--+-------------------------------+--------+---------+---------+
       Total:                          8010     0         264    
                                                                 
    /home/gtbldadm/nightlybuilds/mmwave_sdk/scripts/jenkins/../../ti/control/mmwavelink/lib/libmmwavelink_xwr16xx.aer4f
       rl_driver.oer4f                 4434     136       1000   
       rl_sensor.oer4f                 1726     696       0      
       rl_device.oer4f                 460      0         0      
       rl_controller.oer4f             152      0         0      
       rl_monitoring.oer4f             114      0         0      
    +--+-------------------------------+--------+---------+---------+
       Total:                          6886     832       1000   
                                                                 
    /home/gtbldadm/nightlybuilds/mmwave_sdk/scripts/jenkins/../../ti/drivers/adcbuf/lib/libadcbuf_xwr16xx.aer4f
       adcbuf_mmwave.oer4f             1972     20        0      
       ADCBuf.oer4f                    136      16        4      
       adcbuf_xwr1xxx.oer4f            0        16        24     
    +--+-------------------------------+--------+---------+---------+
       Total:                          2108     52        28     
                                                                 
    /home/gtbldadm/nightlybuilds/mmwave_sdk/scripts/jenkins/../../ti/drivers/cbuff/lib/libcbuff_xwr16xx.aer4f
       cbuff.oer4f                     2954     0         0      
       cbuff_transfer.oer4f            1542     0         0      
       cbuff_lvds.oer4f                1329     0         0      
       cbuff_edma.oer4f                731      0         0      
       cbuff_xwr16xx.oer4f             0        0         248    
    +--+-------------------------------+--------+---------+---------+
       Total:                          6556     0         248    
                                                                 
    /home/gtbldadm/nightlybuilds/mmwave_sdk/scripts/jenkins/../../ti/drivers/crc/lib/libcrc_xwr16xx.aer4f
       crc.oer4f                       1256     0         0      
       crc_xwr16xx.oer4f               0        0         4      
    +--+-------------------------------+--------+---------+---------+
       Total:                          1256     0         4      
                                                                 
    /home/gtbldadm/nightlybuilds/mmwave_sdk/scripts/jenkins/../../ti/drivers/dma/lib/libdma_xwr16xx.aer4f
       dma.oer4f                       1978     0         0      
    +--+-------------------------------+--------+---------+---------+
       Total:                          1978     0         0      
                                                                 
    /home/gtbldadm/nightlybuilds/mmwave_sdk/scripts/jenkins/../../ti/drivers/edma/lib/libedma_xwr16xx.aer4f
       edma.oer4f                      3686     16        1260   
       edma_low_level.oer4f            842      0         4      
       edma_xwr1xxx.oer4f              0        56        0      
    +--+-------------------------------+--------+---------+---------+
       Total:                          4528     72        1264   
                                                                 
    /home/gtbldadm/nightlybuilds/mmwave_sdk/scripts/jenkins/../../ti/drivers/esm/lib/libesm_xwr16xx.aer4f
       esm.oer4f                       456      0         112    
       esm_xwr1xxx.oer4f               0        0         12     
    +--+-------------------------------+--------+---------+---------+
       Total:                          456      0         124    
                                                                 
    /home/gtbldadm/nightlybuilds/mmwave_sdk/scripts/jenkins/../../ti/drivers/gpio/lib/libgpio_xwr16xx.aer4f
       gpio.oer4f                      886      0         404    
       gpio_xwr16xx.oer4f              0        0         8      
    +--+-------------------------------+--------+---------+---------+
       Total:                          886      0         412    
                                                                 
    /home/gtbldadm/nightlybuilds/mmwave_sdk/scripts/jenkins/../../ti/drivers/mailbox/lib/libmailbox_xwr16xx.aer4f
       mailbox.oer4f                   1916     36        80     
       mailbox_xwr16xx.oer4f           0        0         48     
    +--+-------------------------------+--------+---------+---------+
       Total:                          1916     36        128    
                                                                 
    /home/gtbldadm/nightlybuilds/mmwave_sdk/scripts/jenkins/../../ti/drivers/osal/lib/libosal_xwr16xx.aer4f
       DebugP_tirtos.oer4f             388      0         0      
       HwiP_tirtos.oer4f               226      0         0      
       SemaphoreP_tirtos.oer4f         150      0         0      
       MemoryP_tirtos.oer4f            28       0         0      
       CycleprofilerP_tirtos.oer4f     26       0         0      
    +--+-------------------------------+--------+---------+---------+
       Total:                          818      0         0      
                                                                 
    /home/gtbldadm/nightlybuilds/mmwave_sdk/scripts/jenkins/../../ti/drivers/pinmux/lib/libpinmux_xwr16xx.aer4f
       pinmux.oer4f                    390      0         0      
       pinmux_xwr1xxx.oer4f            0        0         4      
    +--+-------------------------------+--------+---------+---------+
       Total:                          390      0         4      
                                                                 
    /home/gtbldadm/nightlybuilds/mmwave_sdk/scripts/jenkins/../../ti/drivers/soc/lib/libsoc_xwr16xx.aer4f
       soc_xwr16xx_mss.oer4f           1398     0         20     
       soc.oer4f                       912      0         0      
       soc_xwr16xx.oer4f               502      0         64     
       soc_mpu.o                       182      0         0      
    +--+-------------------------------+--------+---------+---------+
       Total:                          2994     0         84     
                                                                 
    /home/gtbldadm/nightlybuilds/mmwave_sdk/scripts/jenkins/../../ti/drivers/uart/lib/libuart_xwr16xx.aer4f
       uartsci.oer4f                   2192     0         40     
       uartsci_dma.oer4f               642      0         0      
       UART.oer4f                      150      60        4      
       uart_xwr16xx.oer4f              0        0         124    
    +--+-------------------------------+--------+---------+---------+
       Total:                          2984     60        168    
                                                                 
    /home/gtbldadm/nightlybuilds/mmwave_sdk/scripts/jenkins/../../ti/utils/cli/lib/libcli_xwr16xx.aer4f
       cli_mmwave.oer4f                4644     192       584    
       cli.oer4f                       820      4         424    
    +--+-------------------------------+--------+---------+---------+
       Total:                          5464     196       1008   
                                                                 
    /home/gtbldadm/nightlybuilds/mmwave_sdk/scripts/jenkins/../../ti/utils/hsiheader/lib/libhsiheader_xwr16xx.aer4f
       hsiheader.oer4f                 1184     0         144    
    +--+-------------------------------+--------+---------+---------+
       Total:                          1184     0         144    
                                                                 
    /home/gtbldadm/nightlybuilds/mmwave_sdk/scripts/jenkins/../../ti/utils/mathutils/lib/libmathutils.aer4f
       mathutils.oer4f                 48       0         0      
    +--+-------------------------------+--------+---------+---------+
       Total:                          48       0         0      
                                                                 
    /home/gtbldadm/nightlybuilds/mmwave_sdk/ti/demo/xwr16xx/mmw/mmw_configPkg_mss_xwr16xx/package/cfg/mmw_mss_per4ft.src/sysbios/sysbios.aer4ft
       BIOS.obj                        20709    0         0      
       exc_Exception_asm.obj           308      0         0      
       vim_Hwi_asm.obj                 208      0         0      
       arm_TaskSupport_asm.obj         180      0         0      
       vim_Hwi_asm_switch.obj          152      0         0      
       a15_TimestampProvider_asm.obj   46       0         0      
       arm_IntrinsicsSupport_asm.obj   12       0         0      
       tms570_Core_asm.obj             10       0         0      
    +--+-------------------------------+--------+---------+---------+
       Total:                          21625    0         0      
                                                                 
    /opt/ti/bios_6_73_01_01/packages/ti/targets/arm/rtsarm/lib/auto_init.aer4ft
       auto_init.oer4ft                160      0         0      
    +--+-------------------------------+--------+---------+---------+
       Total:                          160      0         0      
                                                                 
    /opt/ti/bios_6_73_01_01/packages/ti/targets/arm/rtsarm/lib/boot.aer4ft
       boot.oer4ft                     116      0         0      
    +--+-------------------------------+--------+---------+---------+
       Total:                          116      0         0      
                                                                 
    /opt/ti/ti-cgt-arm_16.9.6.LTS/lib/rtsv7R4_T_le_v3D16_eabi.lib
       _printfi.obj                    4218     0         0      
       ull_div32.obj                   696      0         0      
       strtod.obj                      484      152       0      
       fopen.obj                       456      0         4      
       defs.obj                        0        0         416    
       trgmsg.obj                      108      0         288    
       ctype.obj                       0        257       0      
       write.obj                       40       0         200    
       s_scalbn.obj                    236      0         0      
       setvbuf.obj                     220      0         0      
       fflush.obj                      204      0         0      
       open.obj                        188      0         4      
       _io_perm.obj                    174      0         0      
       memcpy_t2.obj                   156      0         0      
       fclose.obj                      152      0         0      
       fputc.obj                       152      0         0      
       vsnprintf.obj                   136      0         0      
       memset_t2.obj                   122      0         0      
       getdevice.obj                   116      0         0      
       s_frexp.obj                     116      0         0      
       copy_decompress_lzss.obj        108      0         0      
       hostlseek.obj                   104      0         0      
       hostrename.obj                  104      0         0      
       fseek.obj                       100      0         0      
       hostopen.obj                    92       0         8      
       sprintf.obj                     100      0         0      
       exit.obj                        80       0         12     
       hostread.obj                    92       0         0      
       close.obj                       88       0         0      
       hostwrite.obj                   88       0         0      
       ltoa.obj                        84       0         0      
       atoi.obj                        80       0         0      
       u_div32.obj                     80       0         0      
       cpy_tbl.obj                     76       0         0      
       hostclose.obj                   68       0         0      
       hostunlink.obj                  68       0         0      
       strtok.obj                      64       0         4      
       strncpy.obj                     54       0         0      
       unlink.obj                      44       0         0      
       strspn.obj                      42       0         0      
       lseek.obj                       40       0         0      
       memcmp.obj                      38       0         0      
       strcspn.obj                     34       0         0      
       _lock.obj                       20       0         8      
       memccpy.obj                     28       0         0      
       s_copysign.obj                  26       0         0      
       args_main.obj                   24       0         0      
       strcmp.obj                      24       0         0      
       strchr.obj                      22       0         0      
       strlen.obj                      22       0         0      
       strcpy.obj                      20       0         0      
       copy_decompress_none.obj        14       0         0      
       copy_zero_init.obj              12       0         0      
       errno.obj                       0        0         4      
       stkdepth_vars.obj               0        0         4      
       i_div0.obj                      2        0         0      
    +--+-------------------------------+--------+---------+---------+
       Total:                          9916     409       952    
                                                                 
       Stack:                          0        0         2048   
       Linker Generated:               0        1181      0      
    +--+-------------------------------+--------+---------+---------+
       Grand Total:                    109198   5285      57636  


LINKER GENERATED COPY TABLES

__TI_cinit_table @ 0001c128 records: 4, size/record: 8, table size: 32
	.data: load addr=0001bca8, load size=00000459 bytes, run addr=0800baa8, run size=0000167c bytes, compression=lzss
	.bss: load addr=0001c110, load size=00000008 bytes, run addr=08008000, run size=00003aa8 bytes, compression=zero_init
	.myFiqStack: load addr=0001c118, load size=00000008 bytes, run addr=0800d128, run size=00000800 bytes, compression=zero_init
	systemHeap: load addr=0001c120, load size=00000008 bytes, run addr=08000000, run size=00008000 bytes, compression=zero_init


LINKER GENERATED HANDLER TABLE

__TI_handler_table @ 0001c104 records: 3, size/record: 4, table size: 12
	index: 0, handler: __TI_zero_init
	index: 1, handler: __TI_decompress_lzss
	index: 2, handler: __TI_decompress_none


GLOBAL SYMBOLS: SORTED ALPHABETICALLY BY Name 

address   name                                                                 
-------   ----                                                                 
00017edd  ADCBUF_MMWave_close                                                  
00002ab5  ADCBUF_MMWave_control                                                
00015125  ADCBUF_MMWave_getCQBufAddr                                           
000120ad  ADCBUF_MMWave_getChanBufAddr                                         
0000117b  ADCBUF_MMWave_init                                                   
0000c82d  ADCBUF_MMWave_open                                                   
0001a9f5  ADCBuf_Params_init                                                   
0800ceec  ADCBuf_config                                                        
00011637  ADCBuf_control                                                       
0001b944  ADCBuf_defaultParams                                                 
000164c5  ADCBuf_getChanBufAddr                                                
00018ea5  ADCBuf_init                                                          
00018bcd  ADCBuf_open                                                          
000177a5  C$$EXIT                                                              
00015cdf  C$$IO$$                                                              
00009f21  CBUFF_activateSession                                                
0001441d  CBUFF_closeEDMA                                                      
00018235  CBUFF_closeLVDS                                                      
00008f6d  CBUFF_configEDMA                                                     
000046d1  CBUFF_createSession                                                  
00011869  CBUFF_deactivateSession                                              
0000e075  CBUFF_deinit                                                         
00016535  CBUFF_deinitLVDS                                                     
0000e885  CBUFF_deleteSession                                                  
0001a2ad  CBUFF_finalizeLVDSLinkListParams                                     
000064bd  CBUFF_init                                                           
0000930d  CBUFF_initLVDS                                                       
00014bc1  CBUFF_initLVDSLinkListParams                                         
000072a9  CBUFF_openLVDS                                                       
00015215  CBUFF_setVC                                                          
000136a5  CBUFF_setupNonInterleaved_ADC                                        
000108cd  CBUFF_setupNonInterleaved_CP_ADC_CQ                                  
00011411  CBUFF_setupTransfer                                                  
00017d2b  CBUFF_setup_USER                                                     
0001a6f1  CBUFF_shutdownTransfer                                               
00016609  CLI_MMWaveExtensionHandler                                           
00012155  CLI_MMWaveExtensionHelp                                              
00018ab9  CLI_MMWaveExtensionInit                                              
00005805  CLI_getMMWaveExtensionConfig                                         
0001a44d  CLI_getMMWaveExtensionOpenConfig                                     
0000f6bd  CLI_open                                                             
000178a1  CLI_write                                                            
0000e981  CRC_computeSignature                                                 
00017485  CRC_getSignature                                                     
00017179  CRC_getTransactionId                                                 
0001a92d  CRC_initConfigParams                                                 
000085a5  CRC_open                                                             
0000ef5b  CycleprofilerP_getTimeStamp                                          
0001a787  CycleprofilerP_init                                                  
00012695  DMA_assignChannel                                                    
0000e585  DMA_clearChannelInterruptFlag                                        
000158e1  DMA_disableChannel                                                   
0000dd5d  DMA_disableInterrupt                                                 
0001594d  DMA_enableChannel                                                    
0000f79d  DMA_enableInterrupt                                                  
000171cd  DMA_freeChannel                                                      
000114c9  DMA_getChannelInterruptFlag                                          
000089b1  DMA_setChannelParams                                                 
00010991  DPM_deinit                                                           
00016d01  DPM_execute                                                          
0000aa65  DPM_init                                                             
00010a55  DPM_ioctl                                                            
0001a2c7  DPM_listAdd                                                          
00019d01  DPM_listCat                                                          
0001a12b  DPM_listRemove                                                       
00019591  DPM_msgInitHeader                                                    
0000abe5  DPM_msgRecv                                                          
0001941d  DPM_pipeDeinit                                                       
000191ad  DPM_pipeInit                                                         
00017d73  DPM_pipeRecv                                                         
00014c41  DPM_pipeSend                                                         
00017f65  DPM_start                                                            
00017fa9  DPM_stop                                                             
000174d5  DPM_synch                                                            
00016db1  DebugP_log0                                                          
00016e09  DebugP_log1                                                          
00016669  DebugP_log2                                                          
000166c9  DebugP_log3                                                          
000087a5  EDMA3ChannelToParamMap                                               
000129c9  EDMA3ClrCCErr                                                        
000199c5  EDMA3ClrEvt                                                          
000199e9  EDMA3ClrIntr                                                         
00018af1  EDMA3ClrMissEvt                                                      
00019d21  EDMA3DisableDmaEvt                                                   
00019a0d  EDMA3DisableEvtIntr                                                  
0001a495  EDMA3DisableQdmaEvt                                                  
00016e61  EDMA3EnableChInShadowReg                                             
00019a31  EDMA3EnableDmaEvt                                                    
00019a55  EDMA3EnableEvtIntr                                                   
0001a4ad  EDMA3EnableQdmaEvt                                                   
00016789  EDMA3ErrIntrHighStatusGet                                            
00017b59  EDMA3GetCCErrStatus                                                  
00017cdb  EDMA3GetErrIntrStatus                                                
0001a79d  EDMA3GetIntrStatus                                                   
000121fd  EDMA3Init                                                            
0001a7b1  EDMA3IntrStatusHighGet                                               
00017525  EDMA3MapChToEvtQ                                                     
0001a7c5  EDMA3MapQdmaChToPaRAM                                                
00019d41  EDMA3QdmaClrMissEvt                                                  
00018989  EDMA3QdmaGetErrIntrStatus                                            
0001a32f  EDMA3SetPaRAM                                                        
0001a93f  EDMA3SetQdmaTrigWord                                                 
0001885d  EDMA_chainChannels                                                   
00008ba1  EDMA_configChannel                                                   
0000d4e1  EDMA_configErrorMonitoring                                           
0000f87d  EDMA_configParamSet                                                  
000178ed  EDMA_disableChannel                                                  
00017939  EDMA_enableChannel                                                   
00018899  EDMA_getErrorStatus                                                  
00016911  EDMA_getTransferControllerErrorStatus                                
0000cf41  EDMA_init                                                            
00017fed  EDMA_linkParamSets                                                   
00009865  EDMA_open                                                            
0000b4a5  EDMAsetRegion                                                        
00016eb9  ESM_highpriority_FIQ                                                 
00012739  ESM_init                                                             
00019d61  ESM_lowpriority_IRQ                                                  
00011ded  ESM_processInterrupt                                                 
00013ab1  GPIO_init                                                            
0000b059  GPIO_setConfig                                                       
00010fad  GPIO_write                                                           
00018075  HOSTclose                                                            
0001605d  HOSTlseek                                                            
00016b39  HOSTopen                                                             
00016b95  HOSTread                                                             
000160c5  HOSTrename                                                           
000180b9  HOSTunlink                                                           
000170c9  HOSTwrite                                                            
00005ab5  HSIHeader_createHeader                                               
00015721  HSIHeader_deleteHeader                                               
0000bf59  HSIHeader_init                                                       
0001a7d9  HwiP_Params_init                                                     
00014b41  HwiP_create                                                          
00018a0d  HwiP_delete                                                          
000049c9  HwiP_disable                                                         
00007b4d  HwiP_disableInterrupt                                                
0000a8dd  HwiP_enableInterrupt                                                 
000193e9  HwiP_restore                                                         
000127dd  MMWave_addBpmChirp                                                   
0001041d  MMWave_addChirp                                                      
00011919  MMWave_addProfile                                                    
000153f5  MMWave_config                                                        
000104e5  MMWave_configBPM                                                     
00012c61  MMWave_configLink                                                    
00018729  MMWave_decodeError                                                   
00005279  MMWave_decodeErrorLevel                                              
000144a5  MMWave_deviceCfgAsyncEvent                                           
00015791  MMWave_deviceCfgFxn                                                  
00014529  MMWave_deviceEventFxn                                                
00005d3d  MMWave_deviceExecuteFxn                                              
0001aa15  MMWave_deviceGetDeviceInfo                                           
0000d91d  MMWave_deviceInitFxn                                                 
00014d39  MMWave_deviceOpenFxn                                                 
00015469  MMWave_deviceStartFxn                                                
00015e55  MMWave_deviceStopFxn                                                 
0001a349  MMWave_deviceSyncFxn                                                 
0001a363  MMWave_encodeError                                                   
00016f11  MMWave_execute                                                       
00018277  MMWave_executeLink                                                   
000105ad  MMWave_flushCfg                                                      
000148bd  MMWave_getBpmChirpCfg                                                
0001234d  MMWave_getBpmChirpHandle                                             
000131e9  MMWave_getChirpCfg                                                   
00010675  MMWave_getChirpHandle                                                
000145ad  MMWave_getNumBpmChirp                                                
00015305  MMWave_getNumChirps                                                  
0001430d  MMWave_getProfileCfg                                                 
00012cfd  MMWave_getProfileHandle                                              
0000f959  MMWave_init                                                          
00017275  MMWave_initLink                                                      
0001a37d  MMWave_listAdd                                                       
00019da1  MMWave_listCat                                                       
0000ea7d  MMWave_listGetHead                                                   
0000f31d  MMWave_listGetNext                                                   
0001a147  MMWave_listRemove                                                    
00018f05  MMWave_listRemoveNode                                                
00014631  MMWave_open                                                          
0000b8d9  MMWave_openLink                                                      
0001925d  MMWave_osalMutexCreate                                               
0001a815  MMWave_osalMutexDelete                                               
0001a4c5  MMWave_osalMutexLock                                                 
0000d065  MMWave_osalMutexUnlock                                               
00019289  MMWave_osalSemCreate                                                 
0001a829  MMWave_osalSemDelete                                                 
0000db35  MMWave_osalSemSignal                                                 
0001a4dd  MMWave_osalSemWait                                                   
00012881  MMWave_start                                                         
0000e179  MMWave_startLink                                                     
000169c9  MMWave_stop                                                          
00015a25  MMWave_stopLink                                                      
00017575  MMWave_sync                                                          
000195b9  Mailbox_Config_init                                                  
00013b41  Mailbox_close                                                        
0001b6e4  Mailbox_defaultCfg                                                   
00014db5  Mailbox_init                                                         
00006721  Mailbox_open                                                         
0000fb11  Mailbox_read                                                         
00015ebd  Mailbox_readFlush                                                    
0000de65  Mailbox_write                                                        
000188d5  Mailbox_writeReset                                                   
0001a951  MemoryP_ctrlAlloc                                                    
00017845  MemoryP_ctrlFree                                                     
00011c91  MmwDemo_ADCBufConfig                                                 
00019471  MmwDemo_ADCBufOpen                                                   
00001a01  MmwDemo_CLIInit                                                      
000172c9  MmwDemo_CfgUpdate                                                    
0000c471  MmwDemo_LVDSStreamDeleteHwSession                                    
0000ca95  MmwDemo_LVDSStreamDeleteSwSession                                    
0000706d  MmwDemo_LVDSStreamHwConfig                                           
0000aee5  MmwDemo_LVDSStreamInit                                               
0000b33d  MmwDemo_LVDSStreamSwConfig                                           
00011125  MmwDemo_LVDSStream_EDMAInit                                          
0800d050  MmwDemo_RFParserHwCfg                                                
0001a83d  MmwDemo_RFParser_getNumSubFrames                                     
00013281  MmwDemo_RFParser_parseConfig                                         
0000a269  MmwDemo_bpmConfig                                                    
0000eb7d  MmwDemo_configLVDSHwData                                             
0001073d  MmwDemo_configSensor                                                 
00011e99  MmwDemo_isAllCfgInNonPendingState                                    
000111e1  MmwDemo_isAllCfgInPendingState                                       
00009d79  MmwDemo_openSensor                                                   
00017615  MmwDemo_resetStaticCfgPendingState                                   
0001415d  MmwDemo_sleep                                                        
000074d5  MmwDemo_startSensor                                                  
00007929  MmwDemo_stopSensor                                                   
0000a40d  MmwDemo_transferLVDSUserData                                         
00015bd5  Pinmux_Set_FuncSel                                                   
000123f5  Pinmux_Set_OverrideCtrl                                              
UNDEFED   SHT$$INIT_ARRAY$$Base                                                
UNDEFED   SHT$$INIT_ARRAY$$Limit                                               
000115f3  SOC_MPUAreRegionsSeparate                                            
0001159f  SOC_MPUDisable                                                       
000115d3  SOC_MPUDisableBackgroundRegion                                       
00011581  SOC_MPUEnable                                                        
000115bd  SOC_MPUEnableBackgroundRegion                                        
000115e9  SOC_MPUGetNumberOfRegions                                            
00011601  SOC_MPUGetRegion                                                     
0001160d  SOC_MPUGetRegionBaseAddress                                          
00011627  SOC_MPUGetRegionPermission                                           
0001161d  SOC_MPUGetRegionType                                                 
000115fb  SOC_MPUSetRegion                                                     
00011607  SOC_MPUSetRegionBaseAddress                                          
00011631  SOC_MPUSetRegionSizeRegister                                         
00011613  SOC_MPUSetRegionTypeAndPermission                                    
0001949b  SOC_SystemISR                                                        
0800cc5c  SOC_TranslateAddr_LUT                                                
0000fd95  SOC_controlSecureFirewall                                            
0001249d  SOC_deregisterSysIntListener                                         
000043d1  SOC_deviceInit                                                       
00016add  SOC_enableLVDS                                                       
000141ed  SOC_gateClock                                                        
00018f35  SOC_getDevicePartNumber                                              
0001537d  SOC_getDeviceRFFreqScaleFactor                                       
0001a163  SOC_getInAddr_LUTType                                                
00019f9d  SOC_getOutAddr_LUTType                                               
000146b5  SOC_init                                                             
00019ac1  SOC_isDSSOperational                                                 
00019ae5  SOC_isMMWaveDSSOperational                                           
00019b09  SOC_isMMWaveMSSOperational                                           
00018c69  SOC_isSecureDevice                                                   
0001a9a3  SOC_microDelay                                                       
00012a75  SOC_registerSysIntListener                                           
00018c9d  SOC_setMMWaveDSSLinkState                                            
00018cd1  SOC_setMMWaveMSSLinkState                                            
00018d05  SOC_setMSSLinkState                                                  
00013f2d  SOC_translateAddress                                                 
0001427d  SOC_ungateClock                                                      
00018911  SOC_unhaltBSS                                                        
000192b5  SOC_waitBSSPowerUp                                                   
0000b1c9  SemaphoreP_Params_init                                               
0001625d  SemaphoreP_create                                                    
0001a9c3  SemaphoreP_delete                                                    
0001a963  SemaphoreP_pend                                                      
00018145  SemaphoreP_post                                                      
00018145  SemaphoreP_postFromClock                                             
00018145  SemaphoreP_postFromISR                                               
0000ff35  UART_Params_init                                                     
0800ce04  UART_config                                                          
0001b55c  UART_defaultParams                                                   
00018b29  UART_init                                                            
00018d39  UART_open                                                            
00018195  UART_read                                                            
000181e5  UART_write                                                           
00018fc5  UART_writePolling                                                    
00017019  UartSci_closeDMA                                                     
00019c9b  UartSci_disableRxDMA                                                 
0001a865  UartSci_disableTxDMA                                                 
00019cbd  UartSci_enableRxDMA                                                  
0001a879  UartSci_enableTxDMA                                                  
00013fb9  UartSci_initiateRxDMA                                                
00013bd1  UartSci_initiateTxDMA                                                
00010345  UartSci_isDMAEnabled                                                 
000117b5  UartSci_openDMA                                                      
0001a88d  _DebugP_assert                                                       
00019979  _MmwDemo_debugAssert                                                 
00000000  __ASM__                                                              
0800b6d4  __CIOBUF_                                                            
0000007f  __ISA__                                                              
00000091  __PLAT__                                                             
0800e128  __STACK_END                                                          
00000800  __STACK_SIZE                                                         
000000b5  __TARG__                                                             
0001c128  __TI_CINIT_Base                                                      
0001c148  __TI_CINIT_Limit                                                     
0001c104  __TI_Handler_Table_Base                                              
0001c110  __TI_Handler_Table_Limit                                             
00012b15  __TI_auto_init                                                       
00009767  __TI_cleanup                                                         
0800d018  __TI_cleanup_ptr                                                     
00013319  __TI_closefile                                                       
00015c41  __TI_decompress_lzss                                                 
0001ab31  __TI_decompress_none                                                 
00010279  __TI_doflush                                                         
0800d01c  __TI_dtors_ptr                                                       
0800d020  __TI_enable_exit_profile_output                                      
0800cfe8  __TI_ft_end                                                          
ffffffff  __TI_pprof_out_hndl                                                  
000008c5  __TI_printfi                                                         
ffffffff  __TI_prof_data_size                                                  
ffffffff  __TI_prof_data_start                                                 
00011da3  __TI_rd_ok                                                           
00015ce3  __TI_readmsg                                                         
00000000  __TI_static_base__                                                   
0800b8f4  __TI_tmpnams                                                         
00015cad  __TI_writemsg                                                        
00011d3f  __TI_wrt_ok                                                          
000116f5  __TI_zero_init                                                       
000000dc  __TRDR__                                                             
00008193  __aeabi_idiv0                                                        
000150a9  __aeabi_memclr                                                       
000150a9  __aeabi_memclr4                                                      
000150a9  __aeabi_memclr8                                                      
00012ed1  __aeabi_memcpy                                                       
00012ed1  __aeabi_memcpy4                                                      
00012ed1  __aeabi_memcpy8                                                      
000150ab  __aeabi_memset                                                       
000150ab  __aeabi_memset4                                                      
000150ab  __aeabi_memset8                                                      
0800cff4  __aeabi_stderr                                                       
0800cfec  __aeabi_stdin                                                        
0800cff0  __aeabi_stdout                                                       
000177f4  __aeabi_uidiv                                                        
000177f4  __aeabi_uidivmod                                                     
0000554c  __aeabi_uldivmod                                                     
ffffffff  __binit__                                                            
ffffffff  __c_args__                                                           
0800d928  __stack                                                              
0001a585  _args_main                                                           
000154dc  _c_int00                                                             
0001b17e  _ctypes_                                                             
0800c9d0  _device                                                              
0800c7c8  _ftable                                                              
0800d048  _lock                                                                
0001a8eb  _nop                                                                 
0001a8e3  _register_lock                                                       
0001a8dd  _register_unlock                                                     
0800cb74  _stream                                                              
0800d04c  _unlock                                                              
000177a9  abort                                                                
00017755  atoi                                                                 
ffffffff  binit                                                                
00017071  close                                                                
00017a69  copy_in                                                              
0001a3cb  copysign                                                             
0001a3cb  copysignl                                                            
0800baac  edmaDbg                                                              
0800d0e4  errno                                                                
000177b1  exit                                                                 
0001337f  fclose                                                               
000102c5  fflush                                                               
000155c5  finddevice                                                           
000097bd  fopen                                                                
000133b1  fputc                                                                
0001a397  free                                                                 
00009793  freopen                                                              
00015639  frexp                                                                
00015639  frexpl                                                               
000162c1  fseek                                                                
0001b930  gADCBufFxnTable                                                      
0001b964  gADCBufHwCfg                                                         
0800ca48  gCBUFFHwAttribute                                                    
0800cd18  gCBUFFInterfaceFxn                                                   
0800b398  gCLI                                                                 
0800c4f8  gCLIMMWaveControlCfg                                                 
0800c450  gCLIMMWaveExtensionTable                                             
0800c388  gCLIMMWaveOpenCfg                                                    
0800c380  gCLI_mmwave_freq_scale_factor                                        
0800d0d0  gCRCRegister                                                         
0800d0d4  gDPM                                                                 
0800d058  gDPMHwAttrib                                                         
0001b66c  gDPMMessageFxnTable                                                  
0800cfac  gDPMRemoteTable                                                      
0800baa8  gEDMA_4K_check                                                       
0800d024  gESMHwCfgAttrs                                                       
0001b5d4  gEdmaHwAttrs                                                         
0800ba28  gEsmMCB                                                              
0800d060  gGPIOHwAtrrib                                                        
0800b540  gGPIOMCB                                                             
0800b998  gHSIHeaderMCB                                                        
0800cf04  gInterleavedTransferFxn                                              
0800ba98  gMMWave_DualcoreMCB                                                  
0800b7f4  gMMWave_MCB                                                          
0800cbc4  gMailboxMCB                                                          
0800cf1c  gMailboxMssBssHwCfg                                                  
0800cf34  gMailboxMssDssHwCfg                                                  
0800a900  gMmwMssMCB                                                           
0800cf4c  gMultipleChirpNonInterleavedTransferFxn                              
0800cf64  gNonInterleavedTransferFxn                                           
0800d0dc  gPinmuxRegs                                                          
0800cfc0  gSOCHwAttrib                                                         
0800cddc  gUartSciFxnTable                                                     
0800cb1c  gUartSciHwCfg                                                        
000155f3  getdevice                                                            
0000f231  ldexp                                                                
0000f231  ldexpl                                                               
00019659  lseek                                                                
0001731d  ltoa                                                                 
0000ad65  main                                                                 
0800d0f0  main_func_sp                                                         
0001917f  malloc                                                               
0001a8a1  mathUtils_ceilLog2                                                   
0001a767  mathUtils_floorLog2                                                  
0001a975  mathUtils_pow2roundup                                                
0001a1b9  memccpy                                                              
00019927  memcmp                                                               
00012ed1  memcpy                                                               
000150b1  memset                                                               
000187a5  mmwDemo_cfgAnalogMonitor                                             
0001975f  mmwDemo_cfgRxSaturationMonitor                                       
00019fbb  mmwDemo_cfgRxSigImgMonitor                                           
0001129d  open                                                                 
0800baa0  parmbuf                                                              
0800c3b0  partInfoStringArray                                                  
000133b1  putc                                                                 
00013437  putchar                                                              
0800d0d8  regionId                                                             
00019339  remove                                                               
0001a8b5  rlAppendDummy                                                        
00018b61  rlAppendSubBlock                                                     
000194c5  rlDeviceGetMmWaveLinkVersion                                         
000192e1  rlDeviceGetMssVersion                                                
0001a53d  rlDeviceGetRfVersion                                                 
00017dbb  rlDeviceGetVersion                                                   
000176b5  rlDeviceIdentifyCmdDir                                               
0001612d  rlDevicePowerOff                                                     
00014045  rlDevicePowerOn                                                      
00019b2d  rlDeviceSetHsiClk                                                    
00015551  rlDriverAsyncEventHandler                                            
0001a555  rlDriverCalCRC                                                       
00016ca7  rlDriverCalChkSum                                                    
0000a74d  rlDriverCmdInvoke                                                    
0000c0a1  rlDriverCmdSendRetry                                                 
00019631  rlDriverConstructInMsg                                               
0000b619  rlDriverConstructOutMsg                                              
00013861  rlDriverDeInit                                                       
00014a3d  rlDriverExecuteGetApi                                                
00015f8d  rlDriverExecuteSetApi                                                
0001a56d  rlDriverFillPayload                                                  
0000c1e9  rlDriverGetHandle                                                    
00011f45  rlDriverGetPlatformId                                                
00015ff5  rlDriverHostIrqHandler                                               
0000e685  rlDriverInit                                                         
0001a8c9  rlDriverIsDeviceMapValid                                             
00010b19  rlDriverMsgCmdReply                                                  
00009a21  rlDriverMsgRead                                                      
000138f5  rlDriverMsgReadCmdCtx                                                
000140d1  rlDriverMsgReadSpawnCtx                                              
00010d65  rlDriverMsgWrite                                                     
00017e05  rlDriverOsiInit                                                      
00013989  rlDriverProcRdMsg                                                    
0000ec75  rlDriverRdVerifyMsg                                                  
000094d5  rlDriverRxHdrRead                                                    
0001837b  rlDriverValidateHdr                                                  
00017705  rlDriverVerifyCRC                                                    
00012545  rlDriverWaitForResponse                                              
00019b51  rlEnableContMode                                                     
0001a3b1  rlGetRfDieId                                                         
000182b9  rlGetSubBlock                                                        
000196a9  rlGetSubBlockId                                                      
000196d9  rlGetSubBlockLen                                                     
00019785  rlRfAnaMonConfig                                                     
000100e1  rlRfCalibDataRestore                                                 
00019e01  rlRfInit                                                             
000197ab  rlRfInitCalibConfig                                                  
000197d1  rlRfRunTimeCalibConfig                                               
000197f7  rlRfRxIfSatMonConfig                                                 
0001981d  rlRfRxSigImgMonConfig                                                
00019843  rlRfSetCalMonFreqLimitConfig                                         
00019b75  rlRfSetCalMonTimeUnitConfig                                          
00019869  rlRfSetDeviceCfg                                                     
00018f65  rlSensorStart                                                        
0001930d  rlSensorStop                                                         
0001988f  rlSetAdcOutConfig                                                    
000125ed  rlSetAdvFrameConfig                                                  
000198b5  rlSetBpmCommonConfig                                                 
000198db  rlSetChannelConfig                                                   
000101ad  rlSetChirpConfig                                                     
00019901  rlSetContModeConfig                                                  
00010805  rlSetFrameConfig                                                     
00019b99  rlSetLowPowerModeConfig                                              
0000fbe5  rlSetMultiBpmChirpConfig                                             
00011a79  rlSetProfileConfig                                                   
0800c094  rl_rxMsg                                                             
0800bf94  rl_txMsg                                                             
0000f231  scalbn                                                               
0000f231  scalbnl                                                              
0000fa35  setvbuf                                                              
00016325  sprintf                                                              
0001a707  strchr                                                               
0001a59d  strcmp                                                               
0001a8f1  strcpy                                                               
00019cdf  strcspn                                                              
0001a71d  strlen                                                               
00018b97  strncpy                                                              
000194ef  strspn                                                               
00008d89  strtod                                                               
000183bd  strtok                                                               
00008d89  strtold                                                              
0800ce28  ti_sysbios_BIOS_Module__state__V                                     
0001a62d  ti_sysbios_BIOS_RtsGateProxy_Handle__label__S                        
00014abd  ti_sysbios_BIOS_RtsGateProxy_enter__E                                
000163ed  ti_sysbios_BIOS_RtsGateProxy_leave__E                                
0001ac71  ti_sysbios_BIOS_RtsGateProxy_query__E                                
00019365  ti_sysbios_BIOS_atExitFunc__I                                        
00019fd9  ti_sysbios_BIOS_errorRaiseHook__I                                    
0001a733  ti_sysbios_BIOS_exitFunc__I                                          
0001aa31  ti_sysbios_BIOS_getCpuFreq__E                                        
0001acc1  ti_sysbios_BIOS_linkedWithIncorrectBootLibrary__E                    
0000bf57  ti_sysbios_BIOS_nullFunc__I                                          
00019bbd  ti_sysbios_BIOS_registerRTSLock__I                                   
00019be1  ti_sysbios_BIOS_removeRTSLock__I                                     
0001a1d5  ti_sysbios_BIOS_rtsLock__I                                           
0001a5b5  ti_sysbios_BIOS_rtsUnlock__I                                         
0001aa41  ti_sysbios_BIOS_setThreadType__E                                     
00018f95  ti_sysbios_BIOS_startFunc__I                                         
0001aa51  ti_sysbios_BIOS_start__E                                             
00010e24  ti_sysbios_family_arm_IntrinsicsSupport_maxbitA__I                   
00010e24  ti_sysbios_family_arm_IntrinsicsSupport_maxbit__E                    
00017bad  ti_sysbios_family_arm_TaskSupport_Module__startupDone__S             
00014f28  ti_sysbios_family_arm_TaskSupport_buildTaskStack                     
0001ab61  ti_sysbios_family_arm_TaskSupport_checkStack__E                      
0001ab71  ti_sysbios_family_arm_TaskSupport_getStackAlignment__E               
0001a180  ti_sysbios_family_arm_TaskSupport_glue                               
0001b9cc  ti_sysbios_family_arm_TaskSupport_stackAlignment__C                  
00019e21  ti_sysbios_family_arm_TaskSupport_stackUsed__E                       
00018fd1  ti_sysbios_family_arm_TaskSupport_start__E                           
0001a19c  ti_sysbios_family_arm_TaskSupport_swap__E                            
0800d0f8  ti_sysbios_family_arm_a15_TimestampProvider_Module__state__V         
0001aa61  ti_sysbios_family_arm_a15_TimestampProvider_Module_startup__E        
00019e41  ti_sysbios_family_arm_a15_TimestampProvider_autoRefreshFxn__I        
00019709  ti_sysbios_family_arm_a15_TimestampProvider_get32__E                 
00018d71  ti_sysbios_family_arm_a15_TimestampProvider_get64__E                 
0001aa31  ti_sysbios_family_arm_a15_TimestampProvider_getFreq__E               
0001ab3f  ti_sysbios_family_arm_a15_TimestampProvider_getOverflowCCNT__I       
0001a3e5  ti_sysbios_family_arm_a15_TimestampProvider_initCCNT__I              
0001b9d0  ti_sysbios_family_arm_exc_Exception_E_dataAbort__C                   
0001b9d4  ti_sysbios_family_arm_exc_Exception_E_prefetchAbort__C               
0001b9d8  ti_sysbios_family_arm_exc_Exception_E_swi__C                         
0001b9dc  ti_sysbios_family_arm_exc_Exception_E_undefinedInstruction__C        
0800d0ce  ti_sysbios_family_arm_exc_Exception_Module_State_0_excActive__A      
0800d0fc  ti_sysbios_family_arm_exc_Exception_Module_State_0_excContext__A     
0800d100  ti_sysbios_family_arm_exc_Exception_Module_State_0_excStackBuffers__A
08009900  ti_sysbios_family_arm_exc_Exception_Module_State_0_excStack_0__A     
0800d104  ti_sysbios_family_arm_exc_Exception_Module_State_0_excStack__A       
0001bc64  ti_sysbios_family_arm_exc_Exception_Module__id__C                    
0800cfd4  ti_sysbios_family_arm_exc_Exception_Module__state__V                 
0001ab81  ti_sysbios_family_arm_exc_Exception_Module_startup__E                
00005fc1  ti_sysbios_family_arm_exc_Exception_excDumpContext__I                
0000fe64  ti_sysbios_family_arm_exc_Exception_excHandlerAsm__I                 
0000fecc  ti_sysbios_family_arm_exc_Exception_excHandlerDataAsm__I             
0000b4b1  ti_sysbios_family_arm_exc_Exception_excHandler__I                    
0001b9e0  ti_sysbios_family_arm_exc_Exception_excHookFuncs__A                  
0001b9e4  ti_sysbios_family_arm_exc_Exception_excHookFuncs__C                  
00016388  ti_sysbios_family_arm_exc_Exception_initCore0__I                     
0001b9e8  ti_sysbios_family_arm_v7a_Pmu_A_invalidCounterId__C                  
0001b9ec  ti_sysbios_family_arm_v7a_Pmu_Module__diagsEnabled__C                
0001b9f0  ti_sysbios_family_arm_v7a_Pmu_Module__diagsIncluded__C               
0001b9f4  ti_sysbios_family_arm_v7a_Pmu_Module__diagsMask__C                   
0001bc66  ti_sysbios_family_arm_v7a_Pmu_Module__id__C                          
0800d030  ti_sysbios_family_arm_v7a_Pmu_Module__state__V                       
00019e61  ti_sysbios_family_arm_v7a_Pmu_Module_startup__E                      
00012bb4  ti_sysbios_family_arm_v7a_Pmu_configureCounterI__I                   
00010be1  ti_sysbios_family_arm_v7a_Pmu_configureCounter__E                    
0001aa70  ti_sysbios_family_arm_v7a_Pmu_disableInterruptI__E                   
0001aa80  ti_sysbios_family_arm_v7a_Pmu_enableInterruptI__E                    
00014fa4  ti_sysbios_family_arm_v7a_Pmu_getCountI__E                           
00014161  ti_sysbios_family_arm_v7a_Pmu_getCount__E                            
0000c6e8  ti_sysbios_family_arm_v7a_Pmu_getEnabled__E                          
0001aa90  ti_sysbios_family_arm_v7a_Pmu_getNumCounters__E                      
0001a5cc  ti_sysbios_family_arm_v7a_Pmu_initCounters__I                        
0001aaa0  ti_sysbios_family_arm_v7a_Pmu_startCounterI__E                       
00013cf1  ti_sysbios_family_arm_v7a_Pmu_startCounter__E                        
0001aab0  ti_sysbios_family_arm_v7a_Pmu_stopCounterI__E                        
0001b9f8  ti_sysbios_family_arm_v7r_tms570_Core_E_mismatchedIds__C             
0001bc68  ti_sysbios_family_arm_v7r_tms570_Core_Module__id__C                  
00018101  ti_sysbios_family_arm_v7r_tms570_Core_Module_startup__E              
0001aa25  ti_sysbios_family_arm_v7r_tms570_Core_getId__E                       
0001b9fc  ti_sysbios_family_arm_v7r_tms570_Core_id__C                          
0001ba00  ti_sysbios_family_arm_v7r_vim_Hwi_A_badChannelId__C                  
0001ba04  ti_sysbios_family_arm_v7r_vim_Hwi_E_alreadyDefined__C                
0001ba08  ti_sysbios_family_arm_v7r_vim_Hwi_E_badIntNum__C                     
0001ba0c  ti_sysbios_family_arm_v7r_vim_Hwi_E_phantomInterrupt__C              
0001ba10  ti_sysbios_family_arm_v7r_vim_Hwi_E_undefined__C                     
0001ba14  ti_sysbios_family_arm_v7r_vim_Hwi_E_unsupportedMaskingOption__C      
000141f1  ti_sysbios_family_arm_v7r_vim_Hwi_Instance_finalize__E               
0000d2b1  ti_sysbios_family_arm_v7r_vim_Hwi_Instance_init__E                   
0001ba18  ti_sysbios_family_arm_v7r_vim_Hwi_LD_end__C                          
0001ba1c  ti_sysbios_family_arm_v7r_vim_Hwi_LM_begin__C                        
0800c5c8  ti_sysbios_family_arm_v7r_vim_Hwi_Module_State_0_dispatchTable__A    
0800d128  ti_sysbios_family_arm_v7r_vim_Hwi_Module_State_0_fiqStack__A         
0001ba20  ti_sysbios_family_arm_v7r_vim_Hwi_Module__diagsEnabled__C            
0001ba24  ti_sysbios_family_arm_v7r_vim_Hwi_Module__diagsIncluded__C           
0001ba28  ti_sysbios_family_arm_v7r_vim_Hwi_Module__diagsMask__C               
0001bc6a  ti_sysbios_family_arm_v7r_vim_Hwi_Module__id__C                      
0001bc6c  ti_sysbios_family_arm_v7r_vim_Hwi_Module__loggerDefined__C           
0001ba2c  ti_sysbios_family_arm_v7r_vim_Hwi_Module__loggerFxn1__C              
0001ba30  ti_sysbios_family_arm_v7r_vim_Hwi_Module__loggerFxn8__C              
0001ba34  ti_sysbios_family_arm_v7r_vim_Hwi_Module__loggerObj__C               
0800d068  ti_sysbios_family_arm_v7r_vim_Hwi_Module__root__V                    
0001a5e5  ti_sysbios_family_arm_v7r_vim_Hwi_Module__startupDone__F             
0001a5e5  ti_sysbios_family_arm_v7r_vim_Hwi_Module__startupDone__S             
0800cd50  ti_sysbios_family_arm_v7r_vim_Hwi_Module__state__V                   
0000ef61  ti_sysbios_family_arm_v7r_vim_Hwi_Module_startup__E                  
0001ba38  ti_sysbios_family_arm_v7r_vim_Hwi_NUM_INTERRUPTS__C                  
0001b7b8  ti_sysbios_family_arm_v7r_vim_Hwi_Object__DESC__C                    
0001b60c  ti_sysbios_family_arm_v7r_vim_Hwi_Object__PARAMS__C                  
00019e81  ti_sysbios_family_arm_v7r_vim_Hwi_Object__delete__S                  
0800cd84  ti_sysbios_family_arm_v7r_vim_Hwi_Object__table__V                   
0001a5fd  ti_sysbios_family_arm_v7r_vim_Hwi_Params__init__S                    
0001b440  ti_sysbios_family_arm_v7r_vim_Hwi_channelMap__A                      
0001ba3c  ti_sysbios_family_arm_v7r_vim_Hwi_channelMap__C                      
0001a1f1  ti_sysbios_family_arm_v7r_vim_Hwi_clearInterrupt__E                  
00017371  ti_sysbios_family_arm_v7r_vim_Hwi_create                             
000180fd  ti_sysbios_family_arm_v7r_vim_Hwi_delete                             
00019ea1  ti_sysbios_family_arm_v7r_vim_Hwi_disableInterrupt__E                
00009141  ti_sysbios_family_arm_v7r_vim_Hwi_dispatchIRQC__I                    
00013a1c  ti_sysbios_family_arm_v7r_vim_Hwi_dispatchIRQ__I                     
00019ec1  ti_sysbios_family_arm_v7r_vim_Hwi_enableInterrupt__E                 
00017ac1  ti_sysbios_family_arm_v7r_vim_Hwi_getStackInfo__E                    
00012f71  ti_sysbios_family_arm_v7r_vim_Hwi_initIntController__I               
0001894c  ti_sysbios_family_arm_v7r_vim_Hwi_init__I                            
0001b974  ti_sysbios_family_arm_v7r_vim_Hwi_intReqEnaSet__A                    
0001ba40  ti_sysbios_family_arm_v7r_vim_Hwi_intReqEnaSet__C                    
00013011  ti_sysbios_family_arm_v7r_vim_Hwi_mapChannel__I                      
0001ba44  ti_sysbios_family_arm_v7r_vim_Hwi_phantomFunc__C                     
000163f1  ti_sysbios_family_arm_v7r_vim_Hwi_phantomIntHandler__I               
0000b621  ti_sysbios_family_arm_v7r_vim_Hwi_reconfig__E                        
0001ac11  ti_sysbios_family_arm_v7r_vim_Hwi_startup__E                         
0001ab91  ti_sysbios_family_arm_v7r_vim_Hwi_switchFromBootStack__E             
0001ba48  ti_sysbios_family_arm_v7r_vim_Hwi_taskDisable__C                     
0001ba4c  ti_sysbios_family_arm_v7r_vim_Hwi_taskRestoreHwi__C                  
00000000  ti_sysbios_family_arm_v7r_vim_Hwi_vectors                            
fffffdec  ti_sysbios_family_arm_v7r_vim_Hwi_vim                                
0001b984  ti_sysbios_family_arm_v7r_vim_Hwi_wakeEnaSet__A                      
0001ba50  ti_sysbios_family_arm_v7r_vim_Hwi_wakeEnaSet__C                      
00013494  ti_sysbios_family_xxx_Hwi_switchAndRunDispatchC                      
00013448  ti_sysbios_family_xxx_Hwi_switchAndRunFunc                           
0001a615  ti_sysbios_gates_GateHwi_Handle__label__S                            
0001acd1  ti_sysbios_gates_GateHwi_Instance_init__E                            
0001b708  ti_sysbios_gates_GateHwi_Module__FXNS__C                             
0800d070  ti_sysbios_gates_GateHwi_Module__root__V                             
0001b7d8  ti_sysbios_gates_GateHwi_Object__DESC__C                             
0001b8b8  ti_sysbios_gates_GateHwi_Object__PARAMS__C                           
00019001  ti_sysbios_gates_GateHwi_Object__create__S                           
00019ee1  ti_sysbios_gates_GateHwi_Object__delete__S                           
0800d108  ti_sysbios_gates_GateHwi_Object__table__V                            
0001ac01  ti_sysbios_gates_GateHwi_enter__E                                    
0001ac21  ti_sysbios_gates_GateHwi_leave__E                                    
0001ac61  ti_sysbios_gates_GateHwi_query__E                                    
0001ba54  ti_sysbios_gates_GateMutex_A_badContext__C                           
0001a62d  ti_sysbios_gates_GateMutex_Handle__label__S                          
0001ba58  ti_sysbios_gates_GateMutex_Instance_State_sem__O                     
0001aac1  ti_sysbios_gates_GateMutex_Instance_finalize__E                      
0001a211  ti_sysbios_gates_GateMutex_Instance_init__E                          
0001b72c  ti_sysbios_gates_GateMutex_Module__FXNS__C                           
0001ba5c  ti_sysbios_gates_GateMutex_Module__diagsEnabled__C                   
0001ba60  ti_sysbios_gates_GateMutex_Module__diagsIncluded__C                  
0001ba64  ti_sysbios_gates_GateMutex_Module__diagsMask__C                      
0001bc6e  ti_sysbios_gates_GateMutex_Module__id__C                             
0800d078  ti_sysbios_gates_GateMutex_Module__root__V                           
0001b7f8  ti_sysbios_gates_GateMutex_Object__DESC__C                           
0001b8d0  ti_sysbios_gates_GateMutex_Object__PARAMS__C                         
00019031  ti_sysbios_gates_GateMutex_Object__create__S                         
00019c05  ti_sysbios_gates_GateMutex_Object__delete__S                         
0800cc9c  ti_sysbios_gates_GateMutex_Object__table__V                          
00011641  ti_sysbios_gates_GateMutex_enter__E                                  
0001a231  ti_sysbios_gates_GateMutex_leave__E                                  
0001ac71  ti_sysbios_gates_GateMutex_query__E                                  
0001aa25  ti_sysbios_hal_Core_CoreProxy_getId__E                               
0001ba68  ti_sysbios_hal_Hwi_E_stackOverflow__C                                
0001a5e5  ti_sysbios_hal_Hwi_HwiProxy_Module__startupDone__S                   
0001a5fd  ti_sysbios_hal_Hwi_HwiProxy_Params__init__S                          
0001a1f1  ti_sysbios_hal_Hwi_HwiProxy_clearInterrupt__E                        
00019ea1  ti_sysbios_hal_Hwi_HwiProxy_disableInterrupt__E                      
00019ec1  ti_sysbios_hal_Hwi_HwiProxy_enableInterrupt__E                       
00017ac1  ti_sysbios_hal_Hwi_HwiProxy_getStackInfo__E                          
0001ac11  ti_sysbios_hal_Hwi_HwiProxy_startup__E                               
0001ab91  ti_sysbios_hal_Hwi_HwiProxy_switchFromBootStack__E                   
0001bc70  ti_sysbios_hal_Hwi_Module__id__C                                     
0001a991  ti_sysbios_hal_Hwi_Module_startup__E                                 
0800d080  ti_sysbios_hal_Hwi_Object__table__V                                  
00018991  ti_sysbios_hal_Hwi_checkStack                                        
0001a1f1  ti_sysbios_hal_Hwi_clearInterrupt__E                                 
00019ea1  ti_sysbios_hal_Hwi_disableInterrupt__E                               
00019ec1  ti_sysbios_hal_Hwi_enableInterrupt__E                                
00017ac1  ti_sysbios_hal_Hwi_getStackInfo__E                                   
00018e71  ti_sysbios_hal_Hwi_initStack                                         
0001ac11  ti_sysbios_hal_Hwi_startup__E                                        
0001ab91  ti_sysbios_hal_Hwi_switchFromBootStack__E                            
0001ba6c  ti_sysbios_heaps_HeapBuf_Instance_State_freeList__O                  
0800d10c  ti_sysbios_heaps_HeapBuf_Module__state__V                            
0000f321  ti_sysbios_heaps_HeapBuf_Module_startup__E                           
0001ba70  ti_sysbios_heaps_HeapBuf_Object__count__C                            
0001aad1  ti_sysbios_heaps_HeapBuf_Object__get__S                              
0001ba74  ti_sysbios_heaps_HeapBuf_numConstructedHeaps__C                      
0001ba78  ti_sysbios_heaps_HeapMem_A_align__C                                  
0001ba7c  ti_sysbios_heaps_HeapMem_A_heapSize__C                               
0001ba80  ti_sysbios_heaps_HeapMem_A_invalidFree__C                            
0001ba84  ti_sysbios_heaps_HeapMem_A_zeroBlock__C                              
0001ba88  ti_sysbios_heaps_HeapMem_E_memory__C                                 
0001a645  ti_sysbios_heaps_HeapMem_Handle__label__S                            
08000000  ti_sysbios_heaps_HeapMem_Instance_State_0_buf__A                     
0000c1f1  ti_sysbios_heaps_HeapMem_Instance_init__E                            
0001a62d  ti_sysbios_heaps_HeapMem_Module_GateProxy_Handle__label__S           
000183fd  ti_sysbios_heaps_HeapMem_Module_GateProxy_enter__E                   
000189cd  ti_sysbios_heaps_HeapMem_Module_GateProxy_leave__E                   
0001ac71  ti_sysbios_heaps_HeapMem_Module_GateProxy_query__E                   
0001b694  ti_sysbios_heaps_HeapMem_Module__FXNS__C                             
0001ba8c  ti_sysbios_heaps_HeapMem_Module__diagsEnabled__C                     
0001ba90  ti_sysbios_heaps_HeapMem_Module__diagsIncluded__C                    
0001ba94  ti_sysbios_heaps_HeapMem_Module__diagsMask__C                        
0001ba98  ti_sysbios_heaps_HeapMem_Module__gateObj__C                          
0001bc72  ti_sysbios_heaps_HeapMem_Module__id__C                               
0800d088  ti_sysbios_heaps_HeapMem_Module__root__V                             
0001b818  ti_sysbios_heaps_HeapMem_Object__DESC__C                             
0001b750  ti_sysbios_heaps_HeapMem_Object__PARAMS__C                           
0001ba9c  ti_sysbios_heaps_HeapMem_Object__count__C                            
00019061  ti_sysbios_heaps_HeapMem_Object__create__S                           
00019f01  ti_sysbios_heaps_HeapMem_Object__delete__S                           
0001a905  ti_sysbios_heaps_HeapMem_Object__get__S                              
0800cf7c  ti_sysbios_heaps_HeapMem_Object__table__V                            
00007701  ti_sysbios_heaps_HeapMem_allocUnprotected__E                         
00016791  ti_sysbios_heaps_HeapMem_alloc__E                                    
00005811  ti_sysbios_heaps_HeapMem_freeUnprotected__E                          
00019091  ti_sysbios_heaps_HeapMem_free__E                                     
000173d1  ti_sysbios_heaps_HeapMem_getStats__E                                 
000189d1  ti_sysbios_heaps_HeapMem_init__I                                     
0001ac31  ti_sysbios_heaps_HeapMem_isBlocking__E                               
0001baa0  ti_sysbios_heaps_HeapMem_reqAlign__C                                 
0001baa4  ti_sysbios_knl_Clock_LM_begin__C                                     
0001baa8  ti_sysbios_knl_Clock_LM_tick__C                                      
0001baac  ti_sysbios_knl_Clock_LW_delayed__C                                   
0001bab0  ti_sysbios_knl_Clock_Module_State_clockQ__O                          
0001bab4  ti_sysbios_knl_Clock_Module__diagsEnabled__C                         
0001bab8  ti_sysbios_knl_Clock_Module__diagsIncluded__C                        
0001babc  ti_sysbios_knl_Clock_Module__diagsMask__C                            
0001bc74  ti_sysbios_knl_Clock_Module__id__C                                   
0001bc76  ti_sysbios_knl_Clock_Module__loggerDefined__C                        
0001bac0  ti_sysbios_knl_Clock_Module__loggerFxn1__C                           
0001bac4  ti_sysbios_knl_Clock_Module__loggerFxn2__C                           
0001bac8  ti_sysbios_knl_Clock_Module__loggerObj__C                            
0800cdb0  ti_sysbios_knl_Clock_Module__state__V                                
00019c31  ti_sysbios_knl_Clock_Module_startup__E                               
0800ce70  ti_sysbios_knl_Clock_Object__table__V                                
0001a6a9  ti_sysbios_knl_Clock_TimerProxy_Module__startupDone__S               
00018d6d  ti_sysbios_knl_Clock_TimerProxy_getMaxTicks__E                       
00010e31  ti_sysbios_knl_Clock_TimerProxy_startup__E                           
00019391  ti_sysbios_knl_Clock_doTick__I                                       
00016461  ti_sysbios_knl_Clock_logTick__E                                      
0000c6f1  ti_sysbios_knl_Clock_workFunc__E                                     
0001b994  ti_sysbios_knl_Idle_funcList__A                                      
0001b9a0  ti_sysbios_knl_Idle_funcList__C                                      
0001a751  ti_sysbios_knl_Idle_loop__E                                          
000196b1  ti_sysbios_knl_Idle_run__E                                           
00010e24  ti_sysbios_knl_Intrinsics_SupportProxy_maxbit__E                     
00010e24  ti_sysbios_knl_Intrinsics_maxbit__E                                  
0001ac41  ti_sysbios_knl_Queue_Instance_init__E                                
0800d090  ti_sysbios_knl_Queue_Module__root__V                                 
0001b838  ti_sysbios_knl_Queue_Object__DESC__C                                 
0001b8e8  ti_sysbios_knl_Queue_Object__PARAMS__C                               
00016455  ti_sysbios_knl_Queue_Object__get__S                                  
000193bd  ti_sysbios_knl_Queue_construct                                       
0001a24d  ti_sysbios_knl_Queue_destruct                                        
0001ab51  ti_sysbios_knl_Queue_empty__E                                        
0001bacc  ti_sysbios_knl_Semaphore_A_badContext__C                             
0001bad0  ti_sysbios_knl_Semaphore_A_noEvents__C                               
0001bad4  ti_sysbios_knl_Semaphore_A_overflow__C                               
0001bad8  ti_sysbios_knl_Semaphore_A_pendTaskDisabled__C                       
0001badc  ti_sysbios_knl_Semaphore_Instance_State_pendQ__O                     
0001aae1  ti_sysbios_knl_Semaphore_Instance_finalize__E                        
000130b1  ti_sysbios_knl_Semaphore_Instance_init__E                            
0001bae0  ti_sysbios_knl_Semaphore_LM_pend__C                                  
0001bae4  ti_sysbios_knl_Semaphore_LM_post__C                                  
0001bae8  ti_sysbios_knl_Semaphore_Module__diagsEnabled__C                     
0001baec  ti_sysbios_knl_Semaphore_Module__diagsIncluded__C                    
0001baf0  ti_sysbios_knl_Semaphore_Module__diagsMask__C                        
0001bc78  ti_sysbios_knl_Semaphore_Module__id__C                               
0001bc7a  ti_sysbios_knl_Semaphore_Module__loggerDefined__C                    
0001baf4  ti_sysbios_knl_Semaphore_Module__loggerFxn2__C                       
0001baf8  ti_sysbios_knl_Semaphore_Module__loggerFxn4__C                       
0001bafc  ti_sysbios_knl_Semaphore_Module__loggerObj__C                        
0800d098  ti_sysbios_knl_Semaphore_Module__root__V                             
0001b858  ti_sysbios_knl_Semaphore_Object__DESC__C                             
0001b774  ti_sysbios_knl_Semaphore_Object__PARAMS__C                           
00019c55  ti_sysbios_knl_Semaphore_Object__delete__S                           
0001a65d  ti_sysbios_knl_Semaphore_Params__init__S                             
000190c1  ti_sysbios_knl_Semaphore_construct                                   
00018da5  ti_sysbios_knl_Semaphore_create                                      
0001994d  ti_sysbios_knl_Semaphore_delete                                      
00019f21  ti_sysbios_knl_Semaphore_destruct                                    
00019151  ti_sysbios_knl_Semaphore_pendTimeout__I                              
000049d1  ti_sysbios_knl_Semaphore_pend__E                                     
0000b1d1  ti_sysbios_knl_Semaphore_post__E                                     
0001bb00  ti_sysbios_knl_Task_A_badPriority__C                                 
0001bb04  ti_sysbios_knl_Task_A_badTaskState__C                                
0001bb08  ti_sysbios_knl_Task_A_badThreadType__C                               
0001bb0c  ti_sysbios_knl_Task_A_badTimeout__C                                  
0001bb10  ti_sysbios_knl_Task_A_noPendElem__C                                  
0001bb14  ti_sysbios_knl_Task_A_sleepTaskDisabled__C                           
0001bb18  ti_sysbios_knl_Task_E_spOutOfBounds__C                               
0001bb1c  ti_sysbios_knl_Task_E_stackOverflow__C                               
0800b994  ti_sysbios_knl_Task_Instance_State_0_hookEnv__A                      
0800b078  ti_sysbios_knl_Task_Instance_State_0_stack__A                        
00005281  ti_sysbios_knl_Task_Instance_finalize__E                             
000087b1  ti_sysbios_knl_Task_Instance_init__E                                 
0001bb20  ti_sysbios_knl_Task_LD_block__C                                      
0001bb24  ti_sysbios_knl_Task_LD_exit__C                                       
0001bb28  ti_sysbios_knl_Task_LD_ready__C                                      
0001bb2c  ti_sysbios_knl_Task_LM_sleep__C                                      
0001bb30  ti_sysbios_knl_Task_LM_switch__C                                     
0800d110  ti_sysbios_knl_Task_Module_State_0_idleTask__A                       
0800c950  ti_sysbios_knl_Task_Module_State_0_readyQ__A                         
0001bb34  ti_sysbios_knl_Task_Module_State_inactiveQ__O                        
0001bb38  ti_sysbios_knl_Task_Module__diagsEnabled__C                          
0001bb3c  ti_sysbios_knl_Task_Module__diagsIncluded__C                         
0001bb40  ti_sysbios_knl_Task_Module__diagsMask__C                             
0001bc7c  ti_sysbios_knl_Task_Module__id__C                                    
0001bc7e  ti_sysbios_knl_Task_Module__loggerDefined__C                         
0001bb44  ti_sysbios_knl_Task_Module__loggerFxn2__C                            
0001bb48  ti_sysbios_knl_Task_Module__loggerFxn4__C                            
0001bb4c  ti_sysbios_knl_Task_Module__loggerObj__C                             
0800d03c  ti_sysbios_knl_Task_Module__root__V                                  
0800cc14  ti_sysbios_knl_Task_Module__state__V                                 
00011f51  ti_sysbios_knl_Task_Module_startup__E                                
0001b878  ti_sysbios_knl_Task_Object__DESC__C                                  
0001b518  ti_sysbios_knl_Task_Object__PARAMS__C                                
0001bb50  ti_sysbios_knl_Task_Object__count__C                                 
0001aaf1  ti_sysbios_knl_Task_Object__get__S                                   
0001bb54  ti_sysbios_knl_Task_Object__heap__C                                  
0800cac0  ti_sysbios_knl_Task_Object__table__V                                 
0001a675  ti_sysbios_knl_Task_Params__init__S                                  
00017bad  ti_sysbios_knl_Task_SupportProxy_Module__startupDone__S              
0001ab61  ti_sysbios_knl_Task_SupportProxy_checkStack__E                       
0001ab71  ti_sysbios_knl_Task_SupportProxy_getStackAlignment__E                
00019e21  ti_sysbios_knl_Task_SupportProxy_stackUsed__E                        
00018fd1  ti_sysbios_knl_Task_SupportProxy_start__E                            
0001a19c  ti_sysbios_knl_Task_SupportProxy_swap__E                             
0001bb58  ti_sysbios_knl_Task_allBlockedFunc__C                                
00018151  ti_sysbios_knl_Task_allBlockedFunction__I                            
00012bc1  ti_sysbios_knl_Task_blockI__E                                        
00010351  ti_sysbios_knl_Task_checkStacks__E                                   
00017b0d  ti_sysbios_knl_Task_create                                           
0001bb5c  ti_sysbios_knl_Task_defaultStackHeap__C                              
0001bb60  ti_sysbios_knl_Task_defaultStackSize__C                              
0001ab01  ti_sysbios_knl_Task_disable__E                                       
0001a691  ti_sysbios_knl_Task_enter__I                                         
0000ea81  ti_sysbios_knl_Task_exit__E                                          
0001b900  ti_sysbios_knl_Task_hooks__A                                         
0001b9a8  ti_sysbios_knl_Task_hooks__C                                         
0001bb64  ti_sysbios_knl_Task_numConstructedTasks__C                           
0000b781  ti_sysbios_knl_Task_postInit__I                                      
0001a271  ti_sysbios_knl_Task_restoreHwi__E                                    
0000db41  ti_sysbios_knl_Task_schedule__I                                      
0001a771  ti_sysbios_knl_Task_sleepTimeout__I                                  
000083a1  ti_sysbios_knl_Task_sleep__E                                         
0000f051  ti_sysbios_knl_Task_startCore__E                                     
0001ac81  ti_sysbios_knl_Task_startup__E                                       
00017b61  ti_sysbios_knl_Task_stat__E                                          
00013d81  ti_sysbios_knl_Task_unblockI__E                                      
0001bb68  ti_sysbios_timers_rti_Timer_E_cannotSupport__C                       
0800cf94  ti_sysbios_timers_rti_Timer_Module_State_0_device__A                 
0800d0a0  ti_sysbios_timers_rti_Timer_Module_State_0_handles__A                
0800cff8  ti_sysbios_timers_rti_Timer_Module_State_0_intFreqs__A               
0001bb6c  ti_sysbios_timers_rti_Timer_Module__diagsEnabled__C                  
0001bb70  ti_sysbios_timers_rti_Timer_Module__diagsIncluded__C                 
0001bb74  ti_sysbios_timers_rti_Timer_Module__diagsMask__C                     
0001bc80  ti_sysbios_timers_rti_Timer_Module__id__C                            
0001a6a9  ti_sysbios_timers_rti_Timer_Module__startupDone__F                   
0001a6a9  ti_sysbios_timers_rti_Timer_Module__startupDone__S                   
0800d008  ti_sysbios_timers_rti_Timer_Module__state__V                         
00007b51  ti_sysbios_timers_rti_Timer_Module_startup__E                        
0800ccdc  ti_sysbios_timers_rti_Timer_Object__table__V                         
0001bc82  ti_sysbios_timers_rti_Timer_continueOnSuspend__C                     
0000e381  ti_sysbios_timers_rti_Timer_getFreq__E                               
0001ac91  ti_sysbios_timers_rti_Timer_getMaxTicks__E                           
00014ac1  ti_sysbios_timers_rti_Timer_initDevice__I                            
0001bb78  ti_sysbios_timers_rti_Timer_numTimerDevices__C                       
000193f1  ti_sysbios_timers_rti_Timer_periodicStub__E                          
0001bb7c  ti_sysbios_timers_rti_Timer_startupNeeded__C                         
00010e31  ti_sysbios_timers_rti_Timer_startup__E                               
00018401  ti_sysbios_timers_rti_Timer_stop__E                                  
0001bb80  ti_sysbios_utils_Load_LS_cpuLoad__C                                  
0001bb84  ti_sysbios_utils_Load_LS_taskLoad__C                                 
0800d114  ti_sysbios_utils_Load_Module_State_0_runningTask__A                  
0800ced0  ti_sysbios_utils_Load_Module_State_0_taskEnv__A                      
0800d118  ti_sysbios_utils_Load_Module_State_0_taskStartTime__A                
0001bb88  ti_sysbios_utils_Load_Module_State_taskList__O                       
0001bb8c  ti_sysbios_utils_Load_Module__diagsEnabled__C                        
0001bb90  ti_sysbios_utils_Load_Module__diagsIncluded__C                       
0001bb94  ti_sysbios_utils_Load_Module__diagsMask__C                           
0001bc84  ti_sysbios_utils_Load_Module__id__C                                  
0001bc86  ti_sysbios_utils_Load_Module__loggerDefined__C                       
0001bb98  ti_sysbios_utils_Load_Module__loggerFxn1__C                          
0001bb9c  ti_sysbios_utils_Load_Module__loggerFxn4__C                          
0001bba0  ti_sysbios_utils_Load_Module__loggerObj__C                           
0800c8b8  ti_sysbios_utils_Load_Module__state__V                               
0001bc88  ti_sysbios_utils_Load_autoAddTasks__C                                
0000ff41  ti_sysbios_utils_Load_idleFxn__E                                     
000164d1  ti_sysbios_utils_Load_logCPULoad__I                                  
0000fcc1  ti_sysbios_utils_Load_logLoads__I                                    
0001bba4  ti_sysbios_utils_Load_postUpdate__C                                  
00012001  ti_sysbios_utils_Load_startup__E                                     
0000f141  ti_sysbios_utils_Load_taskCreateHook__E                              
000134e1  ti_sysbios_utils_Load_taskDeleteHook__E                              
0001aba1  ti_sysbios_utils_Load_taskRegHook__E                                 
00017bb1  ti_sysbios_utils_Load_taskSwitchHook__E                              
00016bf1  ti_sysbios_utils_Load_updateCurrentThreadTime__E                     
0001bc8a  ti_sysbios_utils_Load_updateInIdle__C                                
00011b31  ti_sysbios_utils_Load_updateLoads__E                                 
0000cbd1  ti_sysbios_utils_Load_updateThreadContexts__E                        
00011b31  ti_sysbios_utils_Load_update__E                                      
0001bba8  ti_sysbios_utils_Load_windowInMs__C                                  
00019339  unlink                                                               
00014395  vsnprintf                                                            
00019681  write                                                                
0001bbac  xdc_runtime_Assert_E_assertFailed__C                                 
000167f1  xdc_runtime_Assert_raise__I                                          
0001bbb0  xdc_runtime_Core_A_initializedParams__C                              
0001bbb4  xdc_runtime_Core_Module__diagsEnabled__C                             
0001bbb8  xdc_runtime_Core_Module__diagsIncluded__C                            
0001bbbc  xdc_runtime_Core_Module__diagsMask__C                                
0001bc8c  xdc_runtime_Core_Module__id__C                                       
00017431  xdc_runtime_Core_assignLabel__I                                      
00017c91  xdc_runtime_Core_assignParams__I                                     
0000dc51  xdc_runtime_Core_constructObject__I                                  
0000c331  xdc_runtime_Core_createObject__I                                     
00014fb1  xdc_runtime_Core_deleteObject__I                                     
0001bbc0  xdc_runtime_Error_E_memory__C                                        
0800ce90  xdc_runtime_Error_IgnoreBlock                                        
0001bbc4  xdc_runtime_Error_Module__diagsEnabled__C                            
0001bbc8  xdc_runtime_Error_Module__diagsIncluded__C                           
0001bbcc  xdc_runtime_Error_Module__diagsMask__C                               
0001bc8e  xdc_runtime_Error_Module__loggerDefined__C                           
0001bbd0  xdc_runtime_Error_Module__loggerFxn8__C                              
0001bbd4  xdc_runtime_Error_Module__loggerObj__C                               
0800d120  xdc_runtime_Error_Module__state__V                                   
0001a6c1  xdc_runtime_Error_init__E                                            
0001bc90  xdc_runtime_Error_maxDepth__C                                        
0000a5b1  xdc_runtime_Error_policyDefault__E                                   
0001bbd8  xdc_runtime_Error_policyFxn__C                                       
0001bbdc  xdc_runtime_Error_policy__C                                          
00015871  xdc_runtime_Error_print__E                                           
0001bbe0  xdc_runtime_Error_raiseHook__C                                       
0001bbe4  xdc_runtime_IFilterLogger_Interface__BASE__C                         
0001bbe8  xdc_runtime_IGateProvider_Interface__BASE__C                         
0001bbec  xdc_runtime_IHeap_Interface__BASE__C                                 
0001bbf0  xdc_runtime_ILogger_Interface__BASE__C                               
0001bbf4  xdc_runtime_IModule_Interface__BASE__C                               
0001bbf8  xdc_runtime_Log_L_error__C                                           
0001bbfc  xdc_runtime_LoggerBuf_E_badLevel__C                                  
0001a6d9  xdc_runtime_LoggerBuf_Handle__label__S                               
08008000  xdc_runtime_LoggerBuf_Instance_State_0_entryArr__A                   
0001a291  xdc_runtime_LoggerBuf_Instance_finalize__E                           
00010011  xdc_runtime_LoggerBuf_Instance_init__E                               
0001a615  xdc_runtime_LoggerBuf_Module_GateProxy_Handle__label__S              
00019c29  xdc_runtime_LoggerBuf_Module_GateProxy_enter__E                      
00019c2d  xdc_runtime_LoggerBuf_Module_GateProxy_leave__E                      
0001ac61  xdc_runtime_LoggerBuf_Module_GateProxy_query__E                      
0001b598  xdc_runtime_LoggerBuf_Module__FXNS__C                                
0001bc00  xdc_runtime_LoggerBuf_Module__gateObj__C                             
0001bc92  xdc_runtime_LoggerBuf_Module__id__C                                  
0800d0a8  xdc_runtime_LoggerBuf_Module__root__V                                
0800d0c8  xdc_runtime_LoggerBuf_Module__state__V                               
000181a1  xdc_runtime_LoggerBuf_Module_startup__E                              
0001b898  xdc_runtime_LoggerBuf_Object__DESC__C                                
0001b6bc  xdc_runtime_LoggerBuf_Object__PARAMS__C                              
0001bc04  xdc_runtime_LoggerBuf_Object__count__C                               
00017e4d  xdc_runtime_LoggerBuf_Object__create__S                              
00019f41  xdc_runtime_LoggerBuf_Object__delete__S                              
0001a919  xdc_runtime_LoggerBuf_Object__get__S                                 
0800ce4c  xdc_runtime_LoggerBuf_Object__table__V                               
00019709  xdc_runtime_LoggerBuf_TimestampProxy_get32__E                        
00018d71  xdc_runtime_LoggerBuf_TimestampProxy_get64__E                        
0001aa31  xdc_runtime_LoggerBuf_TimestampProxy_getFreq__E                      
0001abe1  xdc_runtime_LoggerBuf_disable__E                                     
0001abf1  xdc_runtime_LoggerBuf_enable__E                                      
0001bc94  xdc_runtime_LoggerBuf_filterByLevel__C                               
00013e11  xdc_runtime_LoggerBuf_getFilterLevel__E                              
00011701  xdc_runtime_LoggerBuf_setFilterLevel__E                              
0001bc08  xdc_runtime_LoggerBuf_statusLogger__C                                
0001ab11  xdc_runtime_LoggerBuf_write0__E                                      
0001a9b1  xdc_runtime_LoggerBuf_write1__E                                      
0001a9d1  xdc_runtime_LoggerBuf_write2__E                                      
0000d071  xdc_runtime_LoggerBuf_write4__E                                      
0000a8e1  xdc_runtime_LoggerBuf_write8__E                                      
0001a615  xdc_runtime_Main_Module_GateProxy_Handle__label__S                   
0001ac61  xdc_runtime_Main_Module_GateProxy_query__E                           
0001bc0c  xdc_runtime_Main_Module__diagsEnabled__C                             
0001bc10  xdc_runtime_Main_Module__diagsIncluded__C                            
0001bc14  xdc_runtime_Main_Module__diagsMask__C                                
0001bc96  xdc_runtime_Main_Module__id__C                                       
0001bc98  xdc_runtime_Main_Module__loggerDefined__C                            
0001bc18  xdc_runtime_Main_Module__loggerFxn1__C                               
0001bc1c  xdc_runtime_Main_Module__loggerFxn2__C                               
0001bc20  xdc_runtime_Main_Module__loggerFxn4__C                               
0001bc24  xdc_runtime_Main_Module__loggerObj__C                                
0800d122  xdc_runtime_Main_Module__root__V                                     
0001a645  xdc_runtime_Memory_HeapProxy_Handle__label__S                        
0001a987  xdc_runtime_Memory_HeapProxy_alloc__E                                
0001abcd  xdc_runtime_Memory_HeapProxy_free__E                                 
0001bc9a  xdc_runtime_Memory_Module__id__C                                     
0800d11c  xdc_runtime_Memory_Module__state__V                                  
00014281  xdc_runtime_Memory_alloc__E                                          
0001bc28  xdc_runtime_Memory_defaultHeapInstance__C                            
0001ab21  xdc_runtime_Memory_free__E                                           
0800d0b0  xdc_runtime_Registry_Module__state__V                                
0800d0b8  xdc_runtime_Startup_Module__state__V                                 
00000001  xdc_runtime_Startup__EXECFXN__C                                      
00000001  xdc_runtime_Startup__RESETFXN__C                                     
0001bc2c  xdc_runtime_Startup_execImpl__C                                      
00016541  xdc_runtime_Startup_exec__E                                          
0001a9e3  xdc_runtime_Startup_exec__I                                          
0001b9b0  xdc_runtime_Startup_firstFxns__A                                     
0001b9b8  xdc_runtime_Startup_firstFxns__C                                     
0001b9c0  xdc_runtime_Startup_lastFxns__C                                      
0001bc30  xdc_runtime_Startup_maxPasses__C                                     
0000d4df  xdc_runtime_Startup_reset__I                                         
0001abb1  xdc_runtime_Startup_rtsDone__E                                       
0001b918  xdc_runtime_Startup_sfxnRts__A                                       
0001bc34  xdc_runtime_Startup_sfxnRts__C                                       
0001b63c  xdc_runtime_Startup_sfxnTab__A                                       
0001bc38  xdc_runtime_Startup_sfxnTab__C                                       
0000c961  xdc_runtime_Startup_startMods__I                                     
000196e1  xdc_runtime_SysStd_abort__E                                          
0001abc1  xdc_runtime_SysStd_exit__E                                           
0001aca1  xdc_runtime_SysStd_putch__E                                          
0001acb1  xdc_runtime_SysStd_ready__E                                          
0001a615  xdc_runtime_System_Module_GateProxy_Handle__label__S                 
0001a20d  xdc_runtime_System_Module_GateProxy_enter__E                         
0001a22d  xdc_runtime_System_Module_GateProxy_leave__E                         
0001ac61  xdc_runtime_System_Module_GateProxy_query__E                         
0800ceb0  xdc_runtime_System_Module_State_0_atexitHandlers__A                  
0001bc3c  xdc_runtime_System_Module__gateObj__C                                
0800d0c0  xdc_runtime_System_Module__state__V                                  
0001ac51  xdc_runtime_System_Module_startup__E                                 
000196e1  xdc_runtime_System_SupportProxy_abort__E                             
0001abc1  xdc_runtime_System_SupportProxy_exit__E                              
0001aca1  xdc_runtime_System_SupportProxy_putch__E                             
0001acb1  xdc_runtime_System_SupportProxy_ready__E                             
0001bc40  xdc_runtime_System_abortFxn__C                                       
000177a9  xdc_runtime_System_abortStd__E                                       
0001a3ff  xdc_runtime_System_aprintf__E                                        
00019711  xdc_runtime_System_aprintf_va__F                                     
000181f1  xdc_runtime_System_atexit__E                                         
000025d1  xdc_runtime_System_doPrint__I                                        
0001bc44  xdc_runtime_System_exitFxn__C                                        
000177b1  xdc_runtime_System_exitStd__E                                        
00017851  xdc_runtime_System_exit__E                                           
0001bc48  xdc_runtime_System_extendFxn__C                                      
0001bc4c  xdc_runtime_System_maxAtexitHandlers__C                              
0000ed6d  xdc_runtime_System_printfExtend__I                                   
0001a419  xdc_runtime_System_printf__E                                         
00019951  xdc_runtime_System_printf_va__F                                      
0001bc9c  xdc_runtime_Text_charCnt__C                                          
0001b27f  xdc_runtime_Text_charTab__A                                          
0001bc50  xdc_runtime_Text_charTab__C                                          
0001bc9e  xdc_runtime_Text_isLoaded__C                                         
0001bc54  xdc_runtime_Text_nameEmpty__C                                        
0001bc58  xdc_runtime_Text_nameStatic__C                                       
0001bc5c  xdc_runtime_Text_nameUnknown__C                                      
000190f1  xdc_runtime_Text_printVisFxn__I                                      
00016851  xdc_runtime_Text_putLab__E                                           
00011be1  xdc_runtime_Text_putMod__E                                           
000129d1  xdc_runtime_Text_putSite__E                                          
0001bca0  xdc_runtime_Text_registryModsLastId__C                               
0001bca2  xdc_runtime_Text_unnamedModsLastId__C                                
0001bc60  xdc_runtime_Text_visitRopeFxn__C                                     
0000fcb9  xdc_runtime_Text_visitRope__I                                        
00017ce1  xdc_runtime_Text_xprintf__I                                          
00019709  xdc_runtime_Timestamp_SupportProxy_get32__E                          
00018d71  xdc_runtime_Timestamp_SupportProxy_get64__E                          
0001aa31  xdc_runtime_Timestamp_SupportProxy_getFreq__E                        
00019709  xdc_runtime_Timestamp_get32__E                                       
00018d71  xdc_runtime_Timestamp_get64__E                                       
0001aa31  xdc_runtime_Timestamp_getFreq__E                                     


GLOBAL SYMBOLS: SORTED BY Symbol Address 

address   name                                                                 
-------   ----                                                                 
00000000  __ASM__                                                              
00000000  __TI_static_base__                                                   
00000000  ti_sysbios_family_arm_v7r_vim_Hwi_vectors                            
00000001  xdc_runtime_Startup__EXECFXN__C                                      
00000001  xdc_runtime_Startup__RESETFXN__C                                     
0000007f  __ISA__                                                              
00000091  __PLAT__                                                             
000000b5  __TARG__                                                             
000000dc  __TRDR__                                                             
00000800  __STACK_SIZE                                                         
000008c5  __TI_printfi                                                         
0000117b  ADCBUF_MMWave_init                                                   
00001a01  MmwDemo_CLIInit                                                      
000025d1  xdc_runtime_System_doPrint__I                                        
00002ab5  ADCBUF_MMWave_control                                                
000043d1  SOC_deviceInit                                                       
000046d1  CBUFF_createSession                                                  
000049c9  HwiP_disable                                                         
000049d1  ti_sysbios_knl_Semaphore_pend__E                                     
00005279  MMWave_decodeErrorLevel                                              
00005281  ti_sysbios_knl_Task_Instance_finalize__E                             
0000554c  __aeabi_uldivmod                                                     
00005805  CLI_getMMWaveExtensionConfig                                         
00005811  ti_sysbios_heaps_HeapMem_freeUnprotected__E                          
00005ab5  HSIHeader_createHeader                                               
00005d3d  MMWave_deviceExecuteFxn                                              
00005fc1  ti_sysbios_family_arm_exc_Exception_excDumpContext__I                
000064bd  CBUFF_init                                                           
00006721  Mailbox_open                                                         
0000706d  MmwDemo_LVDSStreamHwConfig                                           
000072a9  CBUFF_openLVDS                                                       
000074d5  MmwDemo_startSensor                                                  
00007701  ti_sysbios_heaps_HeapMem_allocUnprotected__E                         
00007929  MmwDemo_stopSensor                                                   
00007b4d  HwiP_disableInterrupt                                                
00007b51  ti_sysbios_timers_rti_Timer_Module_startup__E                        
00008193  __aeabi_idiv0                                                        
000083a1  ti_sysbios_knl_Task_sleep__E                                         
000085a5  CRC_open                                                             
000087a5  EDMA3ChannelToParamMap                                               
000087b1  ti_sysbios_knl_Task_Instance_init__E                                 
000089b1  DMA_setChannelParams                                                 
00008ba1  EDMA_configChannel                                                   
00008d89  strtod                                                               
00008d89  strtold                                                              
00008f6d  CBUFF_configEDMA                                                     
00009141  ti_sysbios_family_arm_v7r_vim_Hwi_dispatchIRQC__I                    
0000930d  CBUFF_initLVDS                                                       
000094d5  rlDriverRxHdrRead                                                    
00009767  __TI_cleanup                                                         
00009793  freopen                                                              
000097bd  fopen                                                                
00009865  EDMA_open                                                            
00009a21  rlDriverMsgRead                                                      
00009d79  MmwDemo_openSensor                                                   
00009f21  CBUFF_activateSession                                                
0000a269  MmwDemo_bpmConfig                                                    
0000a40d  MmwDemo_transferLVDSUserData                                         
0000a5b1  xdc_runtime_Error_policyDefault__E                                   
0000a74d  rlDriverCmdInvoke                                                    
0000a8dd  HwiP_enableInterrupt                                                 
0000a8e1  xdc_runtime_LoggerBuf_write8__E                                      
0000aa65  DPM_init                                                             
0000abe5  DPM_msgRecv                                                          
0000ad65  main                                                                 
0000aee5  MmwDemo_LVDSStreamInit                                               
0000b059  GPIO_setConfig                                                       
0000b1c9  SemaphoreP_Params_init                                               
0000b1d1  ti_sysbios_knl_Semaphore_post__E                                     
0000b33d  MmwDemo_LVDSStreamSwConfig                                           
0000b4a5  EDMAsetRegion                                                        
0000b4b1  ti_sysbios_family_arm_exc_Exception_excHandler__I                    
0000b619  rlDriverConstructOutMsg                                              
0000b621  ti_sysbios_family_arm_v7r_vim_Hwi_reconfig__E                        
0000b781  ti_sysbios_knl_Task_postInit__I                                      
0000b8d9  MMWave_openLink                                                      
0000bf57  ti_sysbios_BIOS_nullFunc__I                                          
0000bf59  HSIHeader_init                                                       
0000c0a1  rlDriverCmdSendRetry                                                 
0000c1e9  rlDriverGetHandle                                                    
0000c1f1  ti_sysbios_heaps_HeapMem_Instance_init__E                            
0000c331  xdc_runtime_Core_createObject__I                                     
0000c471  MmwDemo_LVDSStreamDeleteHwSession                                    
0000c6e8  ti_sysbios_family_arm_v7a_Pmu_getEnabled__E                          
0000c6f1  ti_sysbios_knl_Clock_workFunc__E                                     
0000c82d  ADCBUF_MMWave_open                                                   
0000c961  xdc_runtime_Startup_startMods__I                                     
0000ca95  MmwDemo_LVDSStreamDeleteSwSession                                    
0000cbd1  ti_sysbios_utils_Load_updateThreadContexts__E                        
0000cf41  EDMA_init                                                            
0000d065  MMWave_osalMutexUnlock                                               
0000d071  xdc_runtime_LoggerBuf_write4__E                                      
0000d2b1  ti_sysbios_family_arm_v7r_vim_Hwi_Instance_init__E                   
0000d4df  xdc_runtime_Startup_reset__I                                         
0000d4e1  EDMA_configErrorMonitoring                                           
0000d91d  MMWave_deviceInitFxn                                                 
0000db35  MMWave_osalSemSignal                                                 
0000db41  ti_sysbios_knl_Task_schedule__I                                      
0000dc51  xdc_runtime_Core_constructObject__I                                  
0000dd5d  DMA_disableInterrupt                                                 
0000de65  Mailbox_write                                                        
0000e075  CBUFF_deinit                                                         
0000e179  MMWave_startLink                                                     
0000e381  ti_sysbios_timers_rti_Timer_getFreq__E                               
0000e585  DMA_clearChannelInterruptFlag                                        
0000e685  rlDriverInit                                                         
0000e885  CBUFF_deleteSession                                                  
0000e981  CRC_computeSignature                                                 
0000ea7d  MMWave_listGetHead                                                   
0000ea81  ti_sysbios_knl_Task_exit__E                                          
0000eb7d  MmwDemo_configLVDSHwData                                             
0000ec75  rlDriverRdVerifyMsg                                                  
0000ed6d  xdc_runtime_System_printfExtend__I                                   
0000ef5b  CycleprofilerP_getTimeStamp                                          
0000ef61  ti_sysbios_family_arm_v7r_vim_Hwi_Module_startup__E                  
0000f051  ti_sysbios_knl_Task_startCore__E                                     
0000f141  ti_sysbios_utils_Load_taskCreateHook__E                              
0000f231  ldexp                                                                
0000f231  ldexpl                                                               
0000f231  scalbn                                                               
0000f231  scalbnl                                                              
0000f31d  MMWave_listGetNext                                                   
0000f321  ti_sysbios_heaps_HeapBuf_Module_startup__E                           
0000f6bd  CLI_open                                                             
0000f79d  DMA_enableInterrupt                                                  
0000f87d  EDMA_configParamSet                                                  
0000f959  MMWave_init                                                          
0000fa35  setvbuf                                                              
0000fb11  Mailbox_read                                                         
0000fbe5  rlSetMultiBpmChirpConfig                                             
0000fcb9  xdc_runtime_Text_visitRope__I                                        
0000fcc1  ti_sysbios_utils_Load_logLoads__I                                    
0000fd95  SOC_controlSecureFirewall                                            
0000fe64  ti_sysbios_family_arm_exc_Exception_excHandlerAsm__I                 
0000fecc  ti_sysbios_family_arm_exc_Exception_excHandlerDataAsm__I             
0000ff35  UART_Params_init                                                     
0000ff41  ti_sysbios_utils_Load_idleFxn__E                                     
00010011  xdc_runtime_LoggerBuf_Instance_init__E                               
000100e1  rlRfCalibDataRestore                                                 
000101ad  rlSetChirpConfig                                                     
00010279  __TI_doflush                                                         
000102c5  fflush                                                               
00010345  UartSci_isDMAEnabled                                                 
00010351  ti_sysbios_knl_Task_checkStacks__E                                   
0001041d  MMWave_addChirp                                                      
000104e5  MMWave_configBPM                                                     
000105ad  MMWave_flushCfg                                                      
00010675  MMWave_getChirpHandle                                                
0001073d  MmwDemo_configSensor                                                 
00010805  rlSetFrameConfig                                                     
000108cd  CBUFF_setupNonInterleaved_CP_ADC_CQ                                  
00010991  DPM_deinit                                                           
00010a55  DPM_ioctl                                                            
00010b19  rlDriverMsgCmdReply                                                  
00010be1  ti_sysbios_family_arm_v7a_Pmu_configureCounter__E                    
00010d65  rlDriverMsgWrite                                                     
00010e24  ti_sysbios_family_arm_IntrinsicsSupport_maxbitA__I                   
00010e24  ti_sysbios_family_arm_IntrinsicsSupport_maxbit__E                    
00010e24  ti_sysbios_knl_Intrinsics_SupportProxy_maxbit__E                     
00010e24  ti_sysbios_knl_Intrinsics_maxbit__E                                  
00010e31  ti_sysbios_knl_Clock_TimerProxy_startup__E                           
00010e31  ti_sysbios_timers_rti_Timer_startup__E                               
00010fad  GPIO_write                                                           
00011125  MmwDemo_LVDSStream_EDMAInit                                          
000111e1  MmwDemo_isAllCfgInPendingState                                       
0001129d  open                                                                 
00011411  CBUFF_setupTransfer                                                  
000114c9  DMA_getChannelInterruptFlag                                          
00011581  SOC_MPUEnable                                                        
0001159f  SOC_MPUDisable                                                       
000115bd  SOC_MPUEnableBackgroundRegion                                        
000115d3  SOC_MPUDisableBackgroundRegion                                       
000115e9  SOC_MPUGetNumberOfRegions                                            
000115f3  SOC_MPUAreRegionsSeparate                                            
000115fb  SOC_MPUSetRegion                                                     
00011601  SOC_MPUGetRegion                                                     
00011607  SOC_MPUSetRegionBaseAddress                                          
0001160d  SOC_MPUGetRegionBaseAddress                                          
00011613  SOC_MPUSetRegionTypeAndPermission                                    
0001161d  SOC_MPUGetRegionType                                                 
00011627  SOC_MPUGetRegionPermission                                           
00011631  SOC_MPUSetRegionSizeRegister                                         
00011637  ADCBuf_control                                                       
00011641  ti_sysbios_gates_GateMutex_enter__E                                  
000116f5  __TI_zero_init                                                       
00011701  xdc_runtime_LoggerBuf_setFilterLevel__E                              
000117b5  UartSci_openDMA                                                      
00011869  CBUFF_deactivateSession                                              
00011919  MMWave_addProfile                                                    
00011a79  rlSetProfileConfig                                                   
00011b31  ti_sysbios_utils_Load_updateLoads__E                                 
00011b31  ti_sysbios_utils_Load_update__E                                      
00011be1  xdc_runtime_Text_putMod__E                                           
00011c91  MmwDemo_ADCBufConfig                                                 
00011d3f  __TI_wrt_ok                                                          
00011da3  __TI_rd_ok                                                           
00011ded  ESM_processInterrupt                                                 
00011e99  MmwDemo_isAllCfgInNonPendingState                                    
00011f45  rlDriverGetPlatformId                                                
00011f51  ti_sysbios_knl_Task_Module_startup__E                                
00012001  ti_sysbios_utils_Load_startup__E                                     
000120ad  ADCBUF_MMWave_getChanBufAddr                                         
00012155  CLI_MMWaveExtensionHelp                                              
000121fd  EDMA3Init                                                            
0001234d  MMWave_getBpmChirpHandle                                             
000123f5  Pinmux_Set_OverrideCtrl                                              
0001249d  SOC_deregisterSysIntListener                                         
00012545  rlDriverWaitForResponse                                              
000125ed  rlSetAdvFrameConfig                                                  
00012695  DMA_assignChannel                                                    
00012739  ESM_init                                                             
000127dd  MMWave_addBpmChirp                                                   
00012881  MMWave_start                                                         
000129c9  EDMA3ClrCCErr                                                        
000129d1  xdc_runtime_Text_putSite__E                                          
00012a75  SOC_registerSysIntListener                                           
00012b15  __TI_auto_init                                                       
00012bb4  ti_sysbios_family_arm_v7a_Pmu_configureCounterI__I                   
00012bc1  ti_sysbios_knl_Task_blockI__E                                        
00012c61  MMWave_configLink                                                    
00012cfd  MMWave_getProfileHandle                                              
00012ed1  __aeabi_memcpy                                                       
00012ed1  __aeabi_memcpy4                                                      
00012ed1  __aeabi_memcpy8                                                      
00012ed1  memcpy                                                               
00012f71  ti_sysbios_family_arm_v7r_vim_Hwi_initIntController__I               
00013011  ti_sysbios_family_arm_v7r_vim_Hwi_mapChannel__I                      
000130b1  ti_sysbios_knl_Semaphore_Instance_init__E                            
000131e9  MMWave_getChirpCfg                                                   
00013281  MmwDemo_RFParser_parseConfig                                         
00013319  __TI_closefile                                                       
0001337f  fclose                                                               
000133b1  fputc                                                                
000133b1  putc                                                                 
00013437  putchar                                                              
00013448  ti_sysbios_family_xxx_Hwi_switchAndRunFunc                           
00013494  ti_sysbios_family_xxx_Hwi_switchAndRunDispatchC                      
000134e1  ti_sysbios_utils_Load_taskDeleteHook__E                              
000136a5  CBUFF_setupNonInterleaved_ADC                                        
00013861  rlDriverDeInit                                                       
000138f5  rlDriverMsgReadCmdCtx                                                
00013989  rlDriverProcRdMsg                                                    
00013a1c  ti_sysbios_family_arm_v7r_vim_Hwi_dispatchIRQ__I                     
00013ab1  GPIO_init                                                            
00013b41  Mailbox_close                                                        
00013bd1  UartSci_initiateTxDMA                                                
00013cf1  ti_sysbios_family_arm_v7a_Pmu_startCounter__E                        
00013d81  ti_sysbios_knl_Task_unblockI__E                                      
00013e11  xdc_runtime_LoggerBuf_getFilterLevel__E                              
00013f2d  SOC_translateAddress                                                 
00013fb9  UartSci_initiateRxDMA                                                
00014045  rlDevicePowerOn                                                      
000140d1  rlDriverMsgReadSpawnCtx                                              
0001415d  MmwDemo_sleep                                                        
00014161  ti_sysbios_family_arm_v7a_Pmu_getCount__E                            
000141ed  SOC_gateClock                                                        
000141f1  ti_sysbios_family_arm_v7r_vim_Hwi_Instance_finalize__E               
0001427d  SOC_ungateClock                                                      
00014281  xdc_runtime_Memory_alloc__E                                          
0001430d  MMWave_getProfileCfg                                                 
00014395  vsnprintf                                                            
0001441d  CBUFF_closeEDMA                                                      
000144a5  MMWave_deviceCfgAsyncEvent                                           
00014529  MMWave_deviceEventFxn                                                
000145ad  MMWave_getNumBpmChirp                                                
00014631  MMWave_open                                                          
000146b5  SOC_init                                                             
000148bd  MMWave_getBpmChirpCfg                                                
00014a3d  rlDriverExecuteGetApi                                                
00014abd  ti_sysbios_BIOS_RtsGateProxy_enter__E                                
00014ac1  ti_sysbios_timers_rti_Timer_initDevice__I                            
00014b41  HwiP_create                                                          
00014bc1  CBUFF_initLVDSLinkListParams                                         
00014c41  DPM_pipeSend                                                         
00014d39  MMWave_deviceOpenFxn                                                 
00014db5  Mailbox_init                                                         
00014f28  ti_sysbios_family_arm_TaskSupport_buildTaskStack                     
00014fa4  ti_sysbios_family_arm_v7a_Pmu_getCountI__E                           
00014fb1  xdc_runtime_Core_deleteObject__I                                     
000150a9  __aeabi_memclr                                                       
000150a9  __aeabi_memclr4                                                      
000150a9  __aeabi_memclr8                                                      
000150ab  __aeabi_memset                                                       
000150ab  __aeabi_memset4                                                      
000150ab  __aeabi_memset8                                                      
000150b1  memset                                                               
00015125  ADCBUF_MMWave_getCQBufAddr                                           
00015215  CBUFF_setVC                                                          
00015305  MMWave_getNumChirps                                                  
0001537d  SOC_getDeviceRFFreqScaleFactor                                       
000153f5  MMWave_config                                                        
00015469  MMWave_deviceStartFxn                                                
000154dc  _c_int00                                                             
00015551  rlDriverAsyncEventHandler                                            
000155c5  finddevice                                                           
000155f3  getdevice                                                            
00015639  frexp                                                                
00015639  frexpl                                                               
00015721  HSIHeader_deleteHeader                                               
00015791  MMWave_deviceCfgFxn                                                  
00015871  xdc_runtime_Error_print__E                                           
000158e1  DMA_disableChannel                                                   
0001594d  DMA_enableChannel                                                    
00015a25  MMWave_stopLink                                                      
00015bd5  Pinmux_Set_FuncSel                                                   
00015c41  __TI_decompress_lzss                                                 
00015cad  __TI_writemsg                                                        
00015cdf  C$$IO$$                                                              
00015ce3  __TI_readmsg                                                         
00015e55  MMWave_deviceStopFxn                                                 
00015ebd  Mailbox_readFlush                                                    
00015f8d  rlDriverExecuteSetApi                                                
00015ff5  rlDriverHostIrqHandler                                               
0001605d  HOSTlseek                                                            
000160c5  HOSTrename                                                           
0001612d  rlDevicePowerOff                                                     
0001625d  SemaphoreP_create                                                    
000162c1  fseek                                                                
00016325  sprintf                                                              
00016388  ti_sysbios_family_arm_exc_Exception_initCore0__I                     
000163ed  ti_sysbios_BIOS_RtsGateProxy_leave__E                                
000163f1  ti_sysbios_family_arm_v7r_vim_Hwi_phantomIntHandler__I               
00016455  ti_sysbios_knl_Queue_Object__get__S                                  
00016461  ti_sysbios_knl_Clock_logTick__E                                      
000164c5  ADCBuf_getChanBufAddr                                                
000164d1  ti_sysbios_utils_Load_logCPULoad__I                                  
00016535  CBUFF_deinitLVDS                                                     
00016541  xdc_runtime_Startup_exec__E                                          
00016609  CLI_MMWaveExtensionHandler                                           
00016669  DebugP_log2                                                          
000166c9  DebugP_log3                                                          
00016789  EDMA3ErrIntrHighStatusGet                                            
00016791  ti_sysbios_heaps_HeapMem_alloc__E                                    
000167f1  xdc_runtime_Assert_raise__I                                          
00016851  xdc_runtime_Text_putLab__E                                           
00016911  EDMA_getTransferControllerErrorStatus                                
000169c9  MMWave_stop                                                          
00016add  SOC_enableLVDS                                                       
00016b39  HOSTopen                                                             
00016b95  HOSTread                                                             
00016bf1  ti_sysbios_utils_Load_updateCurrentThreadTime__E                     
00016ca7  rlDriverCalChkSum                                                    
00016d01  DPM_execute                                                          
00016db1  DebugP_log0                                                          
00016e09  DebugP_log1                                                          
00016e61  EDMA3EnableChInShadowReg                                             
00016eb9  ESM_highpriority_FIQ                                                 
00016f11  MMWave_execute                                                       
00017019  UartSci_closeDMA                                                     
00017071  close                                                                
000170c9  HOSTwrite                                                            
00017179  CRC_getTransactionId                                                 
000171cd  DMA_freeChannel                                                      
00017275  MMWave_initLink                                                      
000172c9  MmwDemo_CfgUpdate                                                    
0001731d  ltoa                                                                 
00017371  ti_sysbios_family_arm_v7r_vim_Hwi_create                             
000173d1  ti_sysbios_heaps_HeapMem_getStats__E                                 
00017431  xdc_runtime_Core_assignLabel__I                                      
00017485  CRC_getSignature                                                     
000174d5  DPM_synch                                                            
00017525  EDMA3MapChToEvtQ                                                     
00017575  MMWave_sync                                                          
00017615  MmwDemo_resetStaticCfgPendingState                                   
000176b5  rlDeviceIdentifyCmdDir                                               
00017705  rlDriverVerifyCRC                                                    
00017755  atoi                                                                 
000177a5  C$$EXIT                                                              
000177a9  abort                                                                
000177a9  xdc_runtime_System_abortStd__E                                       
000177b1  exit                                                                 
000177b1  xdc_runtime_System_exitStd__E                                        
000177f4  __aeabi_uidiv                                                        
000177f4  __aeabi_uidivmod                                                     
00017845  MemoryP_ctrlFree                                                     
00017851  xdc_runtime_System_exit__E                                           
000178a1  CLI_write                                                            
000178ed  EDMA_disableChannel                                                  
00017939  EDMA_enableChannel                                                   
00017a69  copy_in                                                              
00017ac1  ti_sysbios_family_arm_v7r_vim_Hwi_getStackInfo__E                    
00017ac1  ti_sysbios_hal_Hwi_HwiProxy_getStackInfo__E                          
00017ac1  ti_sysbios_hal_Hwi_getStackInfo__E                                   
00017b0d  ti_sysbios_knl_Task_create                                           
00017b59  EDMA3GetCCErrStatus                                                  
00017b61  ti_sysbios_knl_Task_stat__E                                          
00017bad  ti_sysbios_family_arm_TaskSupport_Module__startupDone__S             
00017bad  ti_sysbios_knl_Task_SupportProxy_Module__startupDone__S              
00017bb1  ti_sysbios_utils_Load_taskSwitchHook__E                              
00017c91  xdc_runtime_Core_assignParams__I                                     
00017cdb  EDMA3GetErrIntrStatus                                                
00017ce1  xdc_runtime_Text_xprintf__I                                          
00017d2b  CBUFF_setup_USER                                                     
00017d73  DPM_pipeRecv                                                         
00017dbb  rlDeviceGetVersion                                                   
00017e05  rlDriverOsiInit                                                      
00017e4d  xdc_runtime_LoggerBuf_Object__create__S                              
00017edd  ADCBUF_MMWave_close                                                  
00017f65  DPM_start                                                            
00017fa9  DPM_stop                                                             
00017fed  EDMA_linkParamSets                                                   
00018075  HOSTclose                                                            
000180b9  HOSTunlink                                                           
000180fd  ti_sysbios_family_arm_v7r_vim_Hwi_delete                             
00018101  ti_sysbios_family_arm_v7r_tms570_Core_Module_startup__E              
00018145  SemaphoreP_post                                                      
00018145  SemaphoreP_postFromClock                                             
00018145  SemaphoreP_postFromISR                                               
00018151  ti_sysbios_knl_Task_allBlockedFunction__I                            
00018195  UART_read                                                            
000181a1  xdc_runtime_LoggerBuf_Module_startup__E                              
000181e5  UART_write                                                           
000181f1  xdc_runtime_System_atexit__E                                         
00018235  CBUFF_closeLVDS                                                      
00018277  MMWave_executeLink                                                   
000182b9  rlGetSubBlock                                                        
0001837b  rlDriverValidateHdr                                                  
000183bd  strtok                                                               
000183fd  ti_sysbios_heaps_HeapMem_Module_GateProxy_enter__E                   
00018401  ti_sysbios_timers_rti_Timer_stop__E                                  
00018729  MMWave_decodeError                                                   
000187a5  mmwDemo_cfgAnalogMonitor                                             
0001885d  EDMA_chainChannels                                                   
00018899  EDMA_getErrorStatus                                                  
000188d5  Mailbox_writeReset                                                   
00018911  SOC_unhaltBSS                                                        
0001894c  ti_sysbios_family_arm_v7r_vim_Hwi_init__I                            
00018989  EDMA3QdmaGetErrIntrStatus                                            
00018991  ti_sysbios_hal_Hwi_checkStack                                        
000189cd  ti_sysbios_heaps_HeapMem_Module_GateProxy_leave__E                   
000189d1  ti_sysbios_heaps_HeapMem_init__I                                     
00018a0d  HwiP_delete                                                          
00018ab9  CLI_MMWaveExtensionInit                                              
00018af1  EDMA3ClrMissEvt                                                      
00018b29  UART_init                                                            
00018b61  rlAppendSubBlock                                                     
00018b97  strncpy                                                              
00018bcd  ADCBuf_open                                                          
00018c69  SOC_isSecureDevice                                                   
00018c9d  SOC_setMMWaveDSSLinkState                                            
00018cd1  SOC_setMMWaveMSSLinkState                                            
00018d05  SOC_setMSSLinkState                                                  
00018d39  UART_open                                                            
00018d6d  ti_sysbios_knl_Clock_TimerProxy_getMaxTicks__E                       
00018d71  ti_sysbios_family_arm_a15_TimestampProvider_get64__E                 
00018d71  xdc_runtime_LoggerBuf_TimestampProxy_get64__E                        
00018d71  xdc_runtime_Timestamp_SupportProxy_get64__E                          
00018d71  xdc_runtime_Timestamp_get64__E                                       
00018da5  ti_sysbios_knl_Semaphore_create                                      
00018e71  ti_sysbios_hal_Hwi_initStack                                         
00018ea5  ADCBuf_init                                                          
00018f05  MMWave_listRemoveNode                                                
00018f35  SOC_getDevicePartNumber                                              
00018f65  rlSensorStart                                                        
00018f95  ti_sysbios_BIOS_startFunc__I                                         
00018fc5  UART_writePolling                                                    
00018fd1  ti_sysbios_family_arm_TaskSupport_start__E                           
00018fd1  ti_sysbios_knl_Task_SupportProxy_start__E                            
00019001  ti_sysbios_gates_GateHwi_Object__create__S                           
00019031  ti_sysbios_gates_GateMutex_Object__create__S                         
00019061  ti_sysbios_heaps_HeapMem_Object__create__S                           
00019091  ti_sysbios_heaps_HeapMem_free__E                                     
000190c1  ti_sysbios_knl_Semaphore_construct                                   
000190f1  xdc_runtime_Text_printVisFxn__I                                      
00019151  ti_sysbios_knl_Semaphore_pendTimeout__I                              
0001917f  malloc                                                               
000191ad  DPM_pipeInit                                                         
0001925d  MMWave_osalMutexCreate                                               
00019289  MMWave_osalSemCreate                                                 
000192b5  SOC_waitBSSPowerUp                                                   
000192e1  rlDeviceGetMssVersion                                                
0001930d  rlSensorStop                                                         
00019339  remove                                                               
00019339  unlink                                                               
00019365  ti_sysbios_BIOS_atExitFunc__I                                        
00019391  ti_sysbios_knl_Clock_doTick__I                                       
000193bd  ti_sysbios_knl_Queue_construct                                       
000193e9  HwiP_restore                                                         
000193f1  ti_sysbios_timers_rti_Timer_periodicStub__E                          
0001941d  DPM_pipeDeinit                                                       
00019471  MmwDemo_ADCBufOpen                                                   
0001949b  SOC_SystemISR                                                        
000194c5  rlDeviceGetMmWaveLinkVersion                                         
000194ef  strspn                                                               
00019591  DPM_msgInitHeader                                                    
000195b9  Mailbox_Config_init                                                  
00019631  rlDriverConstructInMsg                                               
00019659  lseek                                                                
00019681  write                                                                
000196a9  rlGetSubBlockId                                                      
000196b1  ti_sysbios_knl_Idle_run__E                                           
000196d9  rlGetSubBlockLen                                                     
000196e1  xdc_runtime_SysStd_abort__E                                          
000196e1  xdc_runtime_System_SupportProxy_abort__E                             
00019709  ti_sysbios_family_arm_a15_TimestampProvider_get32__E                 
00019709  xdc_runtime_LoggerBuf_TimestampProxy_get32__E                        
00019709  xdc_runtime_Timestamp_SupportProxy_get32__E                          
00019709  xdc_runtime_Timestamp_get32__E                                       
00019711  xdc_runtime_System_aprintf_va__F                                     
0001975f  mmwDemo_cfgRxSaturationMonitor                                       
00019785  rlRfAnaMonConfig                                                     
000197ab  rlRfInitCalibConfig                                                  
000197d1  rlRfRunTimeCalibConfig                                               
000197f7  rlRfRxIfSatMonConfig                                                 
0001981d  rlRfRxSigImgMonConfig                                                
00019843  rlRfSetCalMonFreqLimitConfig                                         
00019869  rlRfSetDeviceCfg                                                     
0001988f  rlSetAdcOutConfig                                                    
000198b5  rlSetBpmCommonConfig                                                 
000198db  rlSetChannelConfig                                                   
00019901  rlSetContModeConfig                                                  
00019927  memcmp                                                               
0001994d  ti_sysbios_knl_Semaphore_delete                                      
00019951  xdc_runtime_System_printf_va__F                                      
00019979  _MmwDemo_debugAssert                                                 
000199c5  EDMA3ClrEvt                                                          
000199e9  EDMA3ClrIntr                                                         
00019a0d  EDMA3DisableEvtIntr                                                  
00019a31  EDMA3EnableDmaEvt                                                    
00019a55  EDMA3EnableEvtIntr                                                   
00019ac1  SOC_isDSSOperational                                                 
00019ae5  SOC_isMMWaveDSSOperational                                           
00019b09  SOC_isMMWaveMSSOperational                                           
00019b2d  rlDeviceSetHsiClk                                                    
00019b51  rlEnableContMode                                                     
00019b75  rlRfSetCalMonTimeUnitConfig                                          
00019b99  rlSetLowPowerModeConfig                                              
00019bbd  ti_sysbios_BIOS_registerRTSLock__I                                   
00019be1  ti_sysbios_BIOS_removeRTSLock__I                                     
00019c05  ti_sysbios_gates_GateMutex_Object__delete__S                         
00019c29  xdc_runtime_LoggerBuf_Module_GateProxy_enter__E                      
00019c2d  xdc_runtime_LoggerBuf_Module_GateProxy_leave__E                      
00019c31  ti_sysbios_knl_Clock_Module_startup__E                               
00019c55  ti_sysbios_knl_Semaphore_Object__delete__S                           
00019c9b  UartSci_disableRxDMA                                                 
00019cbd  UartSci_enableRxDMA                                                  
00019cdf  strcspn                                                              
00019d01  DPM_listCat                                                          
00019d21  EDMA3DisableDmaEvt                                                   
00019d41  EDMA3QdmaClrMissEvt                                                  
00019d61  ESM_lowpriority_IRQ                                                  
00019da1  MMWave_listCat                                                       
00019e01  rlRfInit                                                             
00019e21  ti_sysbios_family_arm_TaskSupport_stackUsed__E                       
00019e21  ti_sysbios_knl_Task_SupportProxy_stackUsed__E                        
00019e41  ti_sysbios_family_arm_a15_TimestampProvider_autoRefreshFxn__I        
00019e61  ti_sysbios_family_arm_v7a_Pmu_Module_startup__E                      
00019e81  ti_sysbios_family_arm_v7r_vim_Hwi_Object__delete__S                  
00019ea1  ti_sysbios_family_arm_v7r_vim_Hwi_disableInterrupt__E                
00019ea1  ti_sysbios_hal_Hwi_HwiProxy_disableInterrupt__E                      
00019ea1  ti_sysbios_hal_Hwi_disableInterrupt__E                               
00019ec1  ti_sysbios_family_arm_v7r_vim_Hwi_enableInterrupt__E                 
00019ec1  ti_sysbios_hal_Hwi_HwiProxy_enableInterrupt__E                       
00019ec1  ti_sysbios_hal_Hwi_enableInterrupt__E                                
00019ee1  ti_sysbios_gates_GateHwi_Object__delete__S                           
00019f01  ti_sysbios_heaps_HeapMem_Object__delete__S                           
00019f21  ti_sysbios_knl_Semaphore_destruct                                    
00019f41  xdc_runtime_LoggerBuf_Object__delete__S                              
00019f9d  SOC_getOutAddr_LUTType                                               
00019fbb  mmwDemo_cfgRxSigImgMonitor                                           
00019fd9  ti_sysbios_BIOS_errorRaiseHook__I                                    
0001a12b  DPM_listRemove                                                       
0001a147  MMWave_listRemove                                                    
0001a163  SOC_getInAddr_LUTType                                                
0001a180  ti_sysbios_family_arm_TaskSupport_glue                               
0001a19c  ti_sysbios_family_arm_TaskSupport_swap__E                            
0001a19c  ti_sysbios_knl_Task_SupportProxy_swap__E                             
0001a1b9  memccpy                                                              
0001a1d5  ti_sysbios_BIOS_rtsLock__I                                           
0001a1f1  ti_sysbios_family_arm_v7r_vim_Hwi_clearInterrupt__E                  
0001a1f1  ti_sysbios_hal_Hwi_HwiProxy_clearInterrupt__E                        
0001a1f1  ti_sysbios_hal_Hwi_clearInterrupt__E                                 
0001a20d  xdc_runtime_System_Module_GateProxy_enter__E                         
0001a211  ti_sysbios_gates_GateMutex_Instance_init__E                          
0001a22d  xdc_runtime_System_Module_GateProxy_leave__E                         
0001a231  ti_sysbios_gates_GateMutex_leave__E                                  
0001a24d  ti_sysbios_knl_Queue_destruct                                        
0001a271  ti_sysbios_knl_Task_restoreHwi__E                                    
0001a291  xdc_runtime_LoggerBuf_Instance_finalize__E                           
0001a2ad  CBUFF_finalizeLVDSLinkListParams                                     
0001a2c7  DPM_listAdd                                                          
0001a32f  EDMA3SetPaRAM                                                        
0001a349  MMWave_deviceSyncFxn                                                 
0001a363  MMWave_encodeError                                                   
0001a37d  MMWave_listAdd                                                       
0001a397  free                                                                 
0001a3b1  rlGetRfDieId                                                         
0001a3cb  copysign                                                             
0001a3cb  copysignl                                                            
0001a3e5  ti_sysbios_family_arm_a15_TimestampProvider_initCCNT__I              
0001a3ff  xdc_runtime_System_aprintf__E                                        
0001a419  xdc_runtime_System_printf__E                                         
0001a44d  CLI_getMMWaveExtensionOpenConfig                                     
0001a495  EDMA3DisableQdmaEvt                                                  
0001a4ad  EDMA3EnableQdmaEvt                                                   
0001a4c5  MMWave_osalMutexLock                                                 
0001a4dd  MMWave_osalSemWait                                                   
0001a53d  rlDeviceGetRfVersion                                                 
0001a555  rlDriverCalCRC                                                       
0001a56d  rlDriverFillPayload                                                  
0001a585  _args_main                                                           
0001a59d  strcmp                                                               
0001a5b5  ti_sysbios_BIOS_rtsUnlock__I                                         
0001a5cc  ti_sysbios_family_arm_v7a_Pmu_initCounters__I                        
0001a5e5  ti_sysbios_family_arm_v7r_vim_Hwi_Module__startupDone__F             
0001a5e5  ti_sysbios_family_arm_v7r_vim_Hwi_Module__startupDone__S             
0001a5e5  ti_sysbios_hal_Hwi_HwiProxy_Module__startupDone__S                   
0001a5fd  ti_sysbios_family_arm_v7r_vim_Hwi_Params__init__S                    
0001a5fd  ti_sysbios_hal_Hwi_HwiProxy_Params__init__S                          
0001a615  ti_sysbios_gates_GateHwi_Handle__label__S                            
0001a615  xdc_runtime_LoggerBuf_Module_GateProxy_Handle__label__S              
0001a615  xdc_runtime_Main_Module_GateProxy_Handle__label__S                   
0001a615  xdc_runtime_System_Module_GateProxy_Handle__label__S                 
0001a62d  ti_sysbios_BIOS_RtsGateProxy_Handle__label__S                        
0001a62d  ti_sysbios_gates_GateMutex_Handle__label__S                          
0001a62d  ti_sysbios_heaps_HeapMem_Module_GateProxy_Handle__label__S           
0001a645  ti_sysbios_heaps_HeapMem_Handle__label__S                            
0001a645  xdc_runtime_Memory_HeapProxy_Handle__label__S                        
0001a65d  ti_sysbios_knl_Semaphore_Params__init__S                             
0001a675  ti_sysbios_knl_Task_Params__init__S                                  
0001a691  ti_sysbios_knl_Task_enter__I                                         
0001a6a9  ti_sysbios_knl_Clock_TimerProxy_Module__startupDone__S               
0001a6a9  ti_sysbios_timers_rti_Timer_Module__startupDone__F                   
0001a6a9  ti_sysbios_timers_rti_Timer_Module__startupDone__S                   
0001a6c1  xdc_runtime_Error_init__E                                            
0001a6d9  xdc_runtime_LoggerBuf_Handle__label__S                               
0001a6f1  CBUFF_shutdownTransfer                                               
0001a707  strchr                                                               
0001a71d  strlen                                                               
0001a733  ti_sysbios_BIOS_exitFunc__I                                          
0001a751  ti_sysbios_knl_Idle_loop__E                                          
0001a767  mathUtils_floorLog2                                                  
0001a771  ti_sysbios_knl_Task_sleepTimeout__I                                  
0001a787  CycleprofilerP_init                                                  
0001a79d  EDMA3GetIntrStatus                                                   
0001a7b1  EDMA3IntrStatusHighGet                                               
0001a7c5  EDMA3MapQdmaChToPaRAM                                                
0001a7d9  HwiP_Params_init                                                     
0001a815  MMWave_osalMutexDelete                                               
0001a829  MMWave_osalSemDelete                                                 
0001a83d  MmwDemo_RFParser_getNumSubFrames                                     
0001a865  UartSci_disableTxDMA                                                 
0001a879  UartSci_enableTxDMA                                                  
0001a88d  _DebugP_assert                                                       
0001a8a1  mathUtils_ceilLog2                                                   
0001a8b5  rlAppendDummy                                                        
0001a8c9  rlDriverIsDeviceMapValid                                             
0001a8dd  _register_unlock                                                     
0001a8e3  _register_lock                                                       
0001a8eb  _nop                                                                 
0001a8f1  strcpy                                                               
0001a905  ti_sysbios_heaps_HeapMem_Object__get__S                              
0001a919  xdc_runtime_LoggerBuf_Object__get__S                                 
0001a92d  CRC_initConfigParams                                                 
0001a93f  EDMA3SetQdmaTrigWord                                                 
0001a951  MemoryP_ctrlAlloc                                                    
0001a963  SemaphoreP_pend                                                      
0001a975  mathUtils_pow2roundup                                                
0001a987  xdc_runtime_Memory_HeapProxy_alloc__E                                
0001a991  ti_sysbios_hal_Hwi_Module_startup__E                                 
0001a9a3  SOC_microDelay                                                       
0001a9b1  xdc_runtime_LoggerBuf_write1__E                                      
0001a9c3  SemaphoreP_delete                                                    
0001a9d1  xdc_runtime_LoggerBuf_write2__E                                      
0001a9e3  xdc_runtime_Startup_exec__I                                          
0001a9f5  ADCBuf_Params_init                                                   
0001aa15  MMWave_deviceGetDeviceInfo                                           
0001aa25  ti_sysbios_family_arm_v7r_tms570_Core_getId__E                       
0001aa25  ti_sysbios_hal_Core_CoreProxy_getId__E                               
0001aa31  ti_sysbios_BIOS_getCpuFreq__E                                        
0001aa31  ti_sysbios_family_arm_a15_TimestampProvider_getFreq__E               
0001aa31  xdc_runtime_LoggerBuf_TimestampProxy_getFreq__E                      
0001aa31  xdc_runtime_Timestamp_SupportProxy_getFreq__E                        
0001aa31  xdc_runtime_Timestamp_getFreq__E                                     
0001aa41  ti_sysbios_BIOS_setThreadType__E                                     
0001aa51  ti_sysbios_BIOS_start__E                                             
0001aa61  ti_sysbios_family_arm_a15_TimestampProvider_Module_startup__E        
0001aa70  ti_sysbios_family_arm_v7a_Pmu_disableInterruptI__E                   
0001aa80  ti_sysbios_family_arm_v7a_Pmu_enableInterruptI__E                    
0001aa90  ti_sysbios_family_arm_v7a_Pmu_getNumCounters__E                      
0001aaa0  ti_sysbios_family_arm_v7a_Pmu_startCounterI__E                       
0001aab0  ti_sysbios_family_arm_v7a_Pmu_stopCounterI__E                        
0001aac1  ti_sysbios_gates_GateMutex_Instance_finalize__E                      
0001aad1  ti_sysbios_heaps_HeapBuf_Object__get__S                              
0001aae1  ti_sysbios_knl_Semaphore_Instance_finalize__E                        
0001aaf1  ti_sysbios_knl_Task_Object__get__S                                   
0001ab01  ti_sysbios_knl_Task_disable__E                                       
0001ab11  xdc_runtime_LoggerBuf_write0__E                                      
0001ab21  xdc_runtime_Memory_free__E                                           
0001ab31  __TI_decompress_none                                                 
0001ab3f  ti_sysbios_family_arm_a15_TimestampProvider_getOverflowCCNT__I       
0001ab51  ti_sysbios_knl_Queue_empty__E                                        
0001ab61  ti_sysbios_family_arm_TaskSupport_checkStack__E                      
0001ab61  ti_sysbios_knl_Task_SupportProxy_checkStack__E                       
0001ab71  ti_sysbios_family_arm_TaskSupport_getStackAlignment__E               
0001ab71  ti_sysbios_knl_Task_SupportProxy_getStackAlignment__E                
0001ab81  ti_sysbios_family_arm_exc_Exception_Module_startup__E                
0001ab91  ti_sysbios_family_arm_v7r_vim_Hwi_switchFromBootStack__E             
0001ab91  ti_sysbios_hal_Hwi_HwiProxy_switchFromBootStack__E                   
0001ab91  ti_sysbios_hal_Hwi_switchFromBootStack__E                            
0001aba1  ti_sysbios_utils_Load_taskRegHook__E                                 
0001abb1  xdc_runtime_Startup_rtsDone__E                                       
0001abc1  xdc_runtime_SysStd_exit__E                                           
0001abc1  xdc_runtime_System_SupportProxy_exit__E                              
0001abcd  xdc_runtime_Memory_HeapProxy_free__E                                 
0001abe1  xdc_runtime_LoggerBuf_disable__E                                     
0001abf1  xdc_runtime_LoggerBuf_enable__E                                      
0001ac01  ti_sysbios_gates_GateHwi_enter__E                                    
0001ac11  ti_sysbios_family_arm_v7r_vim_Hwi_startup__E                         
0001ac11  ti_sysbios_hal_Hwi_HwiProxy_startup__E                               
0001ac11  ti_sysbios_hal_Hwi_startup__E                                        
0001ac21  ti_sysbios_gates_GateHwi_leave__E                                    
0001ac31  ti_sysbios_heaps_HeapMem_isBlocking__E                               
0001ac41  ti_sysbios_knl_Queue_Instance_init__E                                
0001ac51  xdc_runtime_System_Module_startup__E                                 
0001ac61  ti_sysbios_gates_GateHwi_query__E                                    
0001ac61  xdc_runtime_LoggerBuf_Module_GateProxy_query__E                      
0001ac61  xdc_runtime_Main_Module_GateProxy_query__E                           
0001ac61  xdc_runtime_System_Module_GateProxy_query__E                         
0001ac71  ti_sysbios_BIOS_RtsGateProxy_query__E                                
0001ac71  ti_sysbios_gates_GateMutex_query__E                                  
0001ac71  ti_sysbios_heaps_HeapMem_Module_GateProxy_query__E                   
0001ac81  ti_sysbios_knl_Task_startup__E                                       
0001ac91  ti_sysbios_timers_rti_Timer_getMaxTicks__E                           
0001aca1  xdc_runtime_SysStd_putch__E                                          
0001aca1  xdc_runtime_System_SupportProxy_putch__E                             
0001acb1  xdc_runtime_SysStd_ready__E                                          
0001acb1  xdc_runtime_System_SupportProxy_ready__E                             
0001acc1  ti_sysbios_BIOS_linkedWithIncorrectBootLibrary__E                    
0001acd1  ti_sysbios_gates_GateHwi_Instance_init__E                            
0001b17e  _ctypes_                                                             
0001b27f  xdc_runtime_Text_charTab__A                                          
0001b440  ti_sysbios_family_arm_v7r_vim_Hwi_channelMap__A                      
0001b518  ti_sysbios_knl_Task_Object__PARAMS__C                                
0001b55c  UART_defaultParams                                                   
0001b598  xdc_runtime_LoggerBuf_Module__FXNS__C                                
0001b5d4  gEdmaHwAttrs                                                         
0001b60c  ti_sysbios_family_arm_v7r_vim_Hwi_Object__PARAMS__C                  
0001b63c  xdc_runtime_Startup_sfxnTab__A                                       
0001b66c  gDPMMessageFxnTable                                                  
0001b694  ti_sysbios_heaps_HeapMem_Module__FXNS__C                             
0001b6bc  xdc_runtime_LoggerBuf_Object__PARAMS__C                              
0001b6e4  Mailbox_defaultCfg                                                   
0001b708  ti_sysbios_gates_GateHwi_Module__FXNS__C                             
0001b72c  ti_sysbios_gates_GateMutex_Module__FXNS__C                           
0001b750  ti_sysbios_heaps_HeapMem_Object__PARAMS__C                           
0001b774  ti_sysbios_knl_Semaphore_Object__PARAMS__C                           
0001b7b8  ti_sysbios_family_arm_v7r_vim_Hwi_Object__DESC__C                    
0001b7d8  ti_sysbios_gates_GateHwi_Object__DESC__C                             
0001b7f8  ti_sysbios_gates_GateMutex_Object__DESC__C                           
0001b818  ti_sysbios_heaps_HeapMem_Object__DESC__C                             
0001b838  ti_sysbios_knl_Queue_Object__DESC__C                                 
0001b858  ti_sysbios_knl_Semaphore_Object__DESC__C                             
0001b878  ti_sysbios_knl_Task_Object__DESC__C                                  
0001b898  xdc_runtime_LoggerBuf_Object__DESC__C                                
0001b8b8  ti_sysbios_gates_GateHwi_Object__PARAMS__C                           
0001b8d0  ti_sysbios_gates_GateMutex_Object__PARAMS__C                         
0001b8e8  ti_sysbios_knl_Queue_Object__PARAMS__C                               
0001b900  ti_sysbios_knl_Task_hooks__A                                         
0001b918  xdc_runtime_Startup_sfxnRts__A                                       
0001b930  gADCBufFxnTable                                                      
0001b944  ADCBuf_defaultParams                                                 
0001b964  gADCBufHwCfg                                                         
0001b974  ti_sysbios_family_arm_v7r_vim_Hwi_intReqEnaSet__A                    
0001b984  ti_sysbios_family_arm_v7r_vim_Hwi_wakeEnaSet__A                      
0001b994  ti_sysbios_knl_Idle_funcList__A                                      
0001b9a0  ti_sysbios_knl_Idle_funcList__C                                      
0001b9a8  ti_sysbios_knl_Task_hooks__C                                         
0001b9b0  xdc_runtime_Startup_firstFxns__A                                     
0001b9b8  xdc_runtime_Startup_firstFxns__C                                     
0001b9c0  xdc_runtime_Startup_lastFxns__C                                      
0001b9cc  ti_sysbios_family_arm_TaskSupport_stackAlignment__C                  
0001b9d0  ti_sysbios_family_arm_exc_Exception_E_dataAbort__C                   
0001b9d4  ti_sysbios_family_arm_exc_Exception_E_prefetchAbort__C               
0001b9d8  ti_sysbios_family_arm_exc_Exception_E_swi__C                         
0001b9dc  ti_sysbios_family_arm_exc_Exception_E_undefinedInstruction__C        
0001b9e0  ti_sysbios_family_arm_exc_Exception_excHookFuncs__A                  
0001b9e4  ti_sysbios_family_arm_exc_Exception_excHookFuncs__C                  
0001b9e8  ti_sysbios_family_arm_v7a_Pmu_A_invalidCounterId__C                  
0001b9ec  ti_sysbios_family_arm_v7a_Pmu_Module__diagsEnabled__C                
0001b9f0  ti_sysbios_family_arm_v7a_Pmu_Module__diagsIncluded__C               
0001b9f4  ti_sysbios_family_arm_v7a_Pmu_Module__diagsMask__C                   
0001b9f8  ti_sysbios_family_arm_v7r_tms570_Core_E_mismatchedIds__C             
0001b9fc  ti_sysbios_family_arm_v7r_tms570_Core_id__C                          
0001ba00  ti_sysbios_family_arm_v7r_vim_Hwi_A_badChannelId__C                  
0001ba04  ti_sysbios_family_arm_v7r_vim_Hwi_E_alreadyDefined__C                
0001ba08  ti_sysbios_family_arm_v7r_vim_Hwi_E_badIntNum__C                     
0001ba0c  ti_sysbios_family_arm_v7r_vim_Hwi_E_phantomInterrupt__C              
0001ba10  ti_sysbios_family_arm_v7r_vim_Hwi_E_undefined__C                     
0001ba14  ti_sysbios_family_arm_v7r_vim_Hwi_E_unsupportedMaskingOption__C      
0001ba18  ti_sysbios_family_arm_v7r_vim_Hwi_LD_end__C                          
0001ba1c  ti_sysbios_family_arm_v7r_vim_Hwi_LM_begin__C                        
0001ba20  ti_sysbios_family_arm_v7r_vim_Hwi_Module__diagsEnabled__C            
0001ba24  ti_sysbios_family_arm_v7r_vim_Hwi_Module__diagsIncluded__C           
0001ba28  ti_sysbios_family_arm_v7r_vim_Hwi_Module__diagsMask__C               
0001ba2c  ti_sysbios_family_arm_v7r_vim_Hwi_Module__loggerFxn1__C              
0001ba30  ti_sysbios_family_arm_v7r_vim_Hwi_Module__loggerFxn8__C              
0001ba34  ti_sysbios_family_arm_v7r_vim_Hwi_Module__loggerObj__C               
0001ba38  ti_sysbios_family_arm_v7r_vim_Hwi_NUM_INTERRUPTS__C                  
0001ba3c  ti_sysbios_family_arm_v7r_vim_Hwi_channelMap__C                      
0001ba40  ti_sysbios_family_arm_v7r_vim_Hwi_intReqEnaSet__C                    
0001ba44  ti_sysbios_family_arm_v7r_vim_Hwi_phantomFunc__C                     
0001ba48  ti_sysbios_family_arm_v7r_vim_Hwi_taskDisable__C                     
0001ba4c  ti_sysbios_family_arm_v7r_vim_Hwi_taskRestoreHwi__C                  
0001ba50  ti_sysbios_family_arm_v7r_vim_Hwi_wakeEnaSet__C                      
0001ba54  ti_sysbios_gates_GateMutex_A_badContext__C                           
0001ba58  ti_sysbios_gates_GateMutex_Instance_State_sem__O                     
0001ba5c  ti_sysbios_gates_GateMutex_Module__diagsEnabled__C                   
0001ba60  ti_sysbios_gates_GateMutex_Module__diagsIncluded__C                  
0001ba64  ti_sysbios_gates_GateMutex_Module__diagsMask__C                      
0001ba68  ti_sysbios_hal_Hwi_E_stackOverflow__C                                
0001ba6c  ti_sysbios_heaps_HeapBuf_Instance_State_freeList__O                  
0001ba70  ti_sysbios_heaps_HeapBuf_Object__count__C                            
0001ba74  ti_sysbios_heaps_HeapBuf_numConstructedHeaps__C                      
0001ba78  ti_sysbios_heaps_HeapMem_A_align__C                                  
0001ba7c  ti_sysbios_heaps_HeapMem_A_heapSize__C                               
0001ba80  ti_sysbios_heaps_HeapMem_A_invalidFree__C                            
0001ba84  ti_sysbios_heaps_HeapMem_A_zeroBlock__C                              
0001ba88  ti_sysbios_heaps_HeapMem_E_memory__C                                 
0001ba8c  ti_sysbios_heaps_HeapMem_Module__diagsEnabled__C                     
0001ba90  ti_sysbios_heaps_HeapMem_Module__diagsIncluded__C                    
0001ba94  ti_sysbios_heaps_HeapMem_Module__diagsMask__C                        
0001ba98  ti_sysbios_heaps_HeapMem_Module__gateObj__C                          
0001ba9c  ti_sysbios_heaps_HeapMem_Object__count__C                            
0001baa0  ti_sysbios_heaps_HeapMem_reqAlign__C                                 
0001baa4  ti_sysbios_knl_Clock_LM_begin__C                                     
0001baa8  ti_sysbios_knl_Clock_LM_tick__C                                      
0001baac  ti_sysbios_knl_Clock_LW_delayed__C                                   
0001bab0  ti_sysbios_knl_Clock_Module_State_clockQ__O                          
0001bab4  ti_sysbios_knl_Clock_Module__diagsEnabled__C                         
0001bab8  ti_sysbios_knl_Clock_Module__diagsIncluded__C                        
0001babc  ti_sysbios_knl_Clock_Module__diagsMask__C                            
0001bac0  ti_sysbios_knl_Clock_Module__loggerFxn1__C                           
0001bac4  ti_sysbios_knl_Clock_Module__loggerFxn2__C                           
0001bac8  ti_sysbios_knl_Clock_Module__loggerObj__C                            
0001bacc  ti_sysbios_knl_Semaphore_A_badContext__C                             
0001bad0  ti_sysbios_knl_Semaphore_A_noEvents__C                               
0001bad4  ti_sysbios_knl_Semaphore_A_overflow__C                               
0001bad8  ti_sysbios_knl_Semaphore_A_pendTaskDisabled__C                       
0001badc  ti_sysbios_knl_Semaphore_Instance_State_pendQ__O                     
0001bae0  ti_sysbios_knl_Semaphore_LM_pend__C                                  
0001bae4  ti_sysbios_knl_Semaphore_LM_post__C                                  
0001bae8  ti_sysbios_knl_Semaphore_Module__diagsEnabled__C                     
0001baec  ti_sysbios_knl_Semaphore_Module__diagsIncluded__C                    
0001baf0  ti_sysbios_knl_Semaphore_Module__diagsMask__C                        
0001baf4  ti_sysbios_knl_Semaphore_Module__loggerFxn2__C                       
0001baf8  ti_sysbios_knl_Semaphore_Module__loggerFxn4__C                       
0001bafc  ti_sysbios_knl_Semaphore_Module__loggerObj__C                        
0001bb00  ti_sysbios_knl_Task_A_badPriority__C                                 
0001bb04  ti_sysbios_knl_Task_A_badTaskState__C                                
0001bb08  ti_sysbios_knl_Task_A_badThreadType__C                               
0001bb0c  ti_sysbios_knl_Task_A_badTimeout__C                                  
0001bb10  ti_sysbios_knl_Task_A_noPendElem__C                                  
0001bb14  ti_sysbios_knl_Task_A_sleepTaskDisabled__C                           
0001bb18  ti_sysbios_knl_Task_E_spOutOfBounds__C                               
0001bb1c  ti_sysbios_knl_Task_E_stackOverflow__C                               
0001bb20  ti_sysbios_knl_Task_LD_block__C                                      
0001bb24  ti_sysbios_knl_Task_LD_exit__C                                       
0001bb28  ti_sysbios_knl_Task_LD_ready__C                                      
0001bb2c  ti_sysbios_knl_Task_LM_sleep__C                                      
0001bb30  ti_sysbios_knl_Task_LM_switch__C                                     
0001bb34  ti_sysbios_knl_Task_Module_State_inactiveQ__O                        
0001bb38  ti_sysbios_knl_Task_Module__diagsEnabled__C                          
0001bb3c  ti_sysbios_knl_Task_Module__diagsIncluded__C                         
0001bb40  ti_sysbios_knl_Task_Module__diagsMask__C                             
0001bb44  ti_sysbios_knl_Task_Module__loggerFxn2__C                            
0001bb48  ti_sysbios_knl_Task_Module__loggerFxn4__C                            
0001bb4c  ti_sysbios_knl_Task_Module__loggerObj__C                             
0001bb50  ti_sysbios_knl_Task_Object__count__C                                 
0001bb54  ti_sysbios_knl_Task_Object__heap__C                                  
0001bb58  ti_sysbios_knl_Task_allBlockedFunc__C                                
0001bb5c  ti_sysbios_knl_Task_defaultStackHeap__C                              
0001bb60  ti_sysbios_knl_Task_defaultStackSize__C                              
0001bb64  ti_sysbios_knl_Task_numConstructedTasks__C                           
0001bb68  ti_sysbios_timers_rti_Timer_E_cannotSupport__C                       
0001bb6c  ti_sysbios_timers_rti_Timer_Module__diagsEnabled__C                  
0001bb70  ti_sysbios_timers_rti_Timer_Module__diagsIncluded__C                 
0001bb74  ti_sysbios_timers_rti_Timer_Module__diagsMask__C                     
0001bb78  ti_sysbios_timers_rti_Timer_numTimerDevices__C                       
0001bb7c  ti_sysbios_timers_rti_Timer_startupNeeded__C                         
0001bb80  ti_sysbios_utils_Load_LS_cpuLoad__C                                  
0001bb84  ti_sysbios_utils_Load_LS_taskLoad__C                                 
0001bb88  ti_sysbios_utils_Load_Module_State_taskList__O                       
0001bb8c  ti_sysbios_utils_Load_Module__diagsEnabled__C                        
0001bb90  ti_sysbios_utils_Load_Module__diagsIncluded__C                       
0001bb94  ti_sysbios_utils_Load_Module__diagsMask__C                           
0001bb98  ti_sysbios_utils_Load_Module__loggerFxn1__C                          
0001bb9c  ti_sysbios_utils_Load_Module__loggerFxn4__C                          
0001bba0  ti_sysbios_utils_Load_Module__loggerObj__C                           
0001bba4  ti_sysbios_utils_Load_postUpdate__C                                  
0001bba8  ti_sysbios_utils_Load_windowInMs__C                                  
0001bbac  xdc_runtime_Assert_E_assertFailed__C                                 
0001bbb0  xdc_runtime_Core_A_initializedParams__C                              
0001bbb4  xdc_runtime_Core_Module__diagsEnabled__C                             
0001bbb8  xdc_runtime_Core_Module__diagsIncluded__C                            
0001bbbc  xdc_runtime_Core_Module__diagsMask__C                                
0001bbc0  xdc_runtime_Error_E_memory__C                                        
0001bbc4  xdc_runtime_Error_Module__diagsEnabled__C                            
0001bbc8  xdc_runtime_Error_Module__diagsIncluded__C                           
0001bbcc  xdc_runtime_Error_Module__diagsMask__C                               
0001bbd0  xdc_runtime_Error_Module__loggerFxn8__C                              
0001bbd4  xdc_runtime_Error_Module__loggerObj__C                               
0001bbd8  xdc_runtime_Error_policyFxn__C                                       
0001bbdc  xdc_runtime_Error_policy__C                                          
0001bbe0  xdc_runtime_Error_raiseHook__C                                       
0001bbe4  xdc_runtime_IFilterLogger_Interface__BASE__C                         
0001bbe8  xdc_runtime_IGateProvider_Interface__BASE__C                         
0001bbec  xdc_runtime_IHeap_Interface__BASE__C                                 
0001bbf0  xdc_runtime_ILogger_Interface__BASE__C                               
0001bbf4  xdc_runtime_IModule_Interface__BASE__C                               
0001bbf8  xdc_runtime_Log_L_error__C                                           
0001bbfc  xdc_runtime_LoggerBuf_E_badLevel__C                                  
0001bc00  xdc_runtime_LoggerBuf_Module__gateObj__C                             
0001bc04  xdc_runtime_LoggerBuf_Object__count__C                               
0001bc08  xdc_runtime_LoggerBuf_statusLogger__C                                
0001bc0c  xdc_runtime_Main_Module__diagsEnabled__C                             
0001bc10  xdc_runtime_Main_Module__diagsIncluded__C                            
0001bc14  xdc_runtime_Main_Module__diagsMask__C                                
0001bc18  xdc_runtime_Main_Module__loggerFxn1__C                               
0001bc1c  xdc_runtime_Main_Module__loggerFxn2__C                               
0001bc20  xdc_runtime_Main_Module__loggerFxn4__C                               
0001bc24  xdc_runtime_Main_Module__loggerObj__C                                
0001bc28  xdc_runtime_Memory_defaultHeapInstance__C                            
0001bc2c  xdc_runtime_Startup_execImpl__C                                      
0001bc30  xdc_runtime_Startup_maxPasses__C                                     
0001bc34  xdc_runtime_Startup_sfxnRts__C                                       
0001bc38  xdc_runtime_Startup_sfxnTab__C                                       
0001bc3c  xdc_runtime_System_Module__gateObj__C                                
0001bc40  xdc_runtime_System_abortFxn__C                                       
0001bc44  xdc_runtime_System_exitFxn__C                                        
0001bc48  xdc_runtime_System_extendFxn__C                                      
0001bc4c  xdc_runtime_System_maxAtexitHandlers__C                              
0001bc50  xdc_runtime_Text_charTab__C                                          
0001bc54  xdc_runtime_Text_nameEmpty__C                                        
0001bc58  xdc_runtime_Text_nameStatic__C                                       
0001bc5c  xdc_runtime_Text_nameUnknown__C                                      
0001bc60  xdc_runtime_Text_visitRopeFxn__C                                     
0001bc64  ti_sysbios_family_arm_exc_Exception_Module__id__C                    
0001bc66  ti_sysbios_family_arm_v7a_Pmu_Module__id__C                          
0001bc68  ti_sysbios_family_arm_v7r_tms570_Core_Module__id__C                  
0001bc6a  ti_sysbios_family_arm_v7r_vim_Hwi_Module__id__C                      
0001bc6c  ti_sysbios_family_arm_v7r_vim_Hwi_Module__loggerDefined__C           
0001bc6e  ti_sysbios_gates_GateMutex_Module__id__C                             
0001bc70  ti_sysbios_hal_Hwi_Module__id__C                                     
0001bc72  ti_sysbios_heaps_HeapMem_Module__id__C                               
0001bc74  ti_sysbios_knl_Clock_Module__id__C                                   
0001bc76  ti_sysbios_knl_Clock_Module__loggerDefined__C                        
0001bc78  ti_sysbios_knl_Semaphore_Module__id__C                               
0001bc7a  ti_sysbios_knl_Semaphore_Module__loggerDefined__C                    
0001bc7c  ti_sysbios_knl_Task_Module__id__C                                    
0001bc7e  ti_sysbios_knl_Task_Module__loggerDefined__C                         
0001bc80  ti_sysbios_timers_rti_Timer_Module__id__C                            
0001bc82  ti_sysbios_timers_rti_Timer_continueOnSuspend__C                     
0001bc84  ti_sysbios_utils_Load_Module__id__C                                  
0001bc86  ti_sysbios_utils_Load_Module__loggerDefined__C                       
0001bc88  ti_sysbios_utils_Load_autoAddTasks__C                                
0001bc8a  ti_sysbios_utils_Load_updateInIdle__C                                
0001bc8c  xdc_runtime_Core_Module__id__C                                       
0001bc8e  xdc_runtime_Error_Module__loggerDefined__C                           
0001bc90  xdc_runtime_Error_maxDepth__C                                        
0001bc92  xdc_runtime_LoggerBuf_Module__id__C                                  
0001bc94  xdc_runtime_LoggerBuf_filterByLevel__C                               
0001bc96  xdc_runtime_Main_Module__id__C                                       
0001bc98  xdc_runtime_Main_Module__loggerDefined__C                            
0001bc9a  xdc_runtime_Memory_Module__id__C                                     
0001bc9c  xdc_runtime_Text_charCnt__C                                          
0001bc9e  xdc_runtime_Text_isLoaded__C                                         
0001bca0  xdc_runtime_Text_registryModsLastId__C                               
0001bca2  xdc_runtime_Text_unnamedModsLastId__C                                
0001c104  __TI_Handler_Table_Base                                              
0001c110  __TI_Handler_Table_Limit                                             
0001c128  __TI_CINIT_Base                                                      
0001c148  __TI_CINIT_Limit                                                     
08000000  ti_sysbios_heaps_HeapMem_Instance_State_0_buf__A                     
08008000  xdc_runtime_LoggerBuf_Instance_State_0_entryArr__A                   
08009900  ti_sysbios_family_arm_exc_Exception_Module_State_0_excStack_0__A     
0800a900  gMmwMssMCB                                                           
0800b078  ti_sysbios_knl_Task_Instance_State_0_stack__A                        
0800b398  gCLI                                                                 
0800b540  gGPIOMCB                                                             
0800b6d4  __CIOBUF_                                                            
0800b7f4  gMMWave_MCB                                                          
0800b8f4  __TI_tmpnams                                                         
0800b994  ti_sysbios_knl_Task_Instance_State_0_hookEnv__A                      
0800b998  gHSIHeaderMCB                                                        
0800ba28  gEsmMCB                                                              
0800ba98  gMMWave_DualcoreMCB                                                  
0800baa0  parmbuf                                                              
0800baa8  gEDMA_4K_check                                                       
0800baac  edmaDbg                                                              
0800bf94  rl_txMsg                                                             
0800c094  rl_rxMsg                                                             
0800c380  gCLI_mmwave_freq_scale_factor                                        
0800c388  gCLIMMWaveOpenCfg                                                    
0800c3b0  partInfoStringArray                                                  
0800c450  gCLIMMWaveExtensionTable                                             
0800c4f8  gCLIMMWaveControlCfg                                                 
0800c5c8  ti_sysbios_family_arm_v7r_vim_Hwi_Module_State_0_dispatchTable__A    
0800c7c8  _ftable                                                              
0800c8b8  ti_sysbios_utils_Load_Module__state__V                               
0800c950  ti_sysbios_knl_Task_Module_State_0_readyQ__A                         
0800c9d0  _device                                                              
0800ca48  gCBUFFHwAttribute                                                    
0800cac0  ti_sysbios_knl_Task_Object__table__V                                 
0800cb1c  gUartSciHwCfg                                                        
0800cb74  _stream                                                              
0800cbc4  gMailboxMCB                                                          
0800cc14  ti_sysbios_knl_Task_Module__state__V                                 
0800cc5c  SOC_TranslateAddr_LUT                                                
0800cc9c  ti_sysbios_gates_GateMutex_Object__table__V                          
0800ccdc  ti_sysbios_timers_rti_Timer_Object__table__V                         
0800cd18  gCBUFFInterfaceFxn                                                   
0800cd50  ti_sysbios_family_arm_v7r_vim_Hwi_Module__state__V                   
0800cd84  ti_sysbios_family_arm_v7r_vim_Hwi_Object__table__V                   
0800cdb0  ti_sysbios_knl_Clock_Module__state__V                                
0800cddc  gUartSciFxnTable                                                     
0800ce04  UART_config                                                          
0800ce28  ti_sysbios_BIOS_Module__state__V                                     
0800ce4c  xdc_runtime_LoggerBuf_Object__table__V                               
0800ce70  ti_sysbios_knl_Clock_Object__table__V                                
0800ce90  xdc_runtime_Error_IgnoreBlock                                        
0800ceb0  xdc_runtime_System_Module_State_0_atexitHandlers__A                  
0800ced0  ti_sysbios_utils_Load_Module_State_0_taskEnv__A                      
0800ceec  ADCBuf_config                                                        
0800cf04  gInterleavedTransferFxn                                              
0800cf1c  gMailboxMssBssHwCfg                                                  
0800cf34  gMailboxMssDssHwCfg                                                  
0800cf4c  gMultipleChirpNonInterleavedTransferFxn                              
0800cf64  gNonInterleavedTransferFxn                                           
0800cf7c  ti_sysbios_heaps_HeapMem_Object__table__V                            
0800cf94  ti_sysbios_timers_rti_Timer_Module_State_0_device__A                 
0800cfac  gDPMRemoteTable                                                      
0800cfc0  gSOCHwAttrib                                                         
0800cfd4  ti_sysbios_family_arm_exc_Exception_Module__state__V                 
0800cfe8  __TI_ft_end                                                          
0800cfec  __aeabi_stdin                                                        
0800cff0  __aeabi_stdout                                                       
0800cff4  __aeabi_stderr                                                       
0800cff8  ti_sysbios_timers_rti_Timer_Module_State_0_intFreqs__A               
0800d008  ti_sysbios_timers_rti_Timer_Module__state__V                         
0800d018  __TI_cleanup_ptr                                                     
0800d01c  __TI_dtors_ptr                                                       
0800d020  __TI_enable_exit_profile_output                                      
0800d024  gESMHwCfgAttrs                                                       
0800d030  ti_sysbios_family_arm_v7a_Pmu_Module__state__V                       
0800d03c  ti_sysbios_knl_Task_Module__root__V                                  
0800d048  _lock                                                                
0800d04c  _unlock                                                              
0800d050  MmwDemo_RFParserHwCfg                                                
0800d058  gDPMHwAttrib                                                         
0800d060  gGPIOHwAtrrib                                                        
0800d068  ti_sysbios_family_arm_v7r_vim_Hwi_Module__root__V                    
0800d070  ti_sysbios_gates_GateHwi_Module__root__V                             
0800d078  ti_sysbios_gates_GateMutex_Module__root__V                           
0800d080  ti_sysbios_hal_Hwi_Object__table__V                                  
0800d088  ti_sysbios_heaps_HeapMem_Module__root__V                             
0800d090  ti_sysbios_knl_Queue_Module__root__V                                 
0800d098  ti_sysbios_knl_Semaphore_Module__root__V                             
0800d0a0  ti_sysbios_timers_rti_Timer_Module_State_0_handles__A                
0800d0a8  xdc_runtime_LoggerBuf_Module__root__V                                
0800d0b0  xdc_runtime_Registry_Module__state__V                                
0800d0b8  xdc_runtime_Startup_Module__state__V                                 
0800d0c0  xdc_runtime_System_Module__state__V                                  
0800d0c8  xdc_runtime_LoggerBuf_Module__state__V                               
0800d0ce  ti_sysbios_family_arm_exc_Exception_Module_State_0_excActive__A      
0800d0d0  gCRCRegister                                                         
0800d0d4  gDPM                                                                 
0800d0d8  regionId                                                             
0800d0dc  gPinmuxRegs                                                          
0800d0e4  errno                                                                
0800d0f0  main_func_sp                                                         
0800d0f8  ti_sysbios_family_arm_a15_TimestampProvider_Module__state__V         
0800d0fc  ti_sysbios_family_arm_exc_Exception_Module_State_0_excContext__A     
0800d100  ti_sysbios_family_arm_exc_Exception_Module_State_0_excStackBuffers__A
0800d104  ti_sysbios_family_arm_exc_Exception_Module_State_0_excStack__A       
0800d108  ti_sysbios_gates_GateHwi_Object__table__V                            
0800d10c  ti_sysbios_heaps_HeapBuf_Module__state__V                            
0800d110  ti_sysbios_knl_Task_Module_State_0_idleTask__A                       
0800d114  ti_sysbios_utils_Load_Module_State_0_runningTask__A                  
0800d118  ti_sysbios_utils_Load_Module_State_0_taskStartTime__A                
0800d11c  xdc_runtime_Memory_Module__state__V                                  
0800d120  xdc_runtime_Error_Module__state__V                                   
0800d122  xdc_runtime_Main_Module__root__V                                     
0800d128  ti_sysbios_family_arm_v7r_vim_Hwi_Module_State_0_fiqStack__A         
0800d928  __stack                                                              
0800e128  __STACK_END                                                          
fffffdec  ti_sysbios_family_arm_v7r_vim_Hwi_vim                                
ffffffff  __TI_pprof_out_hndl                                                  
ffffffff  __TI_prof_data_size                                                  
ffffffff  __TI_prof_data_start                                                 
ffffffff  __binit__                                                            
ffffffff  __c_args__                                                           
ffffffff  binit                                                                
UNDEFED   SHT$$INIT_ARRAY$$Base                                                
UNDEFED   SHT$$INIT_ARRAY$$Limit                                               

[1095 symbols]
